Archive member included to satisfy reference by file (symbol)

C:/sloeber-workspace/Samd51_DmaTest/Release/arduino.ar(CDC.cpp.o)
                              .\sloeber.ino.cpp.o (Serial_::begin(unsigned long))
C:/sloeber-workspace/Samd51_DmaTest/Release/arduino.ar(USBCore.cpp.o)
                              C:/sloeber-workspace/Samd51_DmaTest/Release/arduino.ar(CDC.cpp.o) (USBDeviceClass::available(unsigned long))
C:/sloeber-workspace/Samd51_DmaTest/Release/arduino.ar(Print.cpp.o)
                              .\sloeber.ino.cpp.o (Print::print(char const*))
C:/sloeber-workspace/Samd51_DmaTest/Release/arduino.ar(Reset.cpp.o)
                              C:/sloeber-workspace/Samd51_DmaTest/Release/arduino.ar(CDC.cpp.o) (initiateReset)
C:/sloeber-workspace/Samd51_DmaTest/Release/arduino.ar(SERCOM.cpp.o)
                              .\core\variant\variant.cpp.o (SERCOM::SERCOM(Sercom*))
C:/sloeber-workspace/Samd51_DmaTest/Release/arduino.ar(Uart.cpp.o)
                              .\core\variant\variant.cpp.o (Uart::Uart(SERCOM*, unsigned char, unsigned char, SercomRXPad, SercomUartTXPad))
C:/sloeber-workspace/Samd51_DmaTest/Release/arduino.ar(abi.cpp.o)
                              C:/sloeber-workspace/Samd51_DmaTest/Release/arduino.ar(Print.cpp.o) (__cxa_pure_virtual)
C:/sloeber-workspace/Samd51_DmaTest/Release/arduino.ar(cortex_handlers.c.o)
                              (Reset_Handler)
C:/sloeber-workspace/Samd51_DmaTest/Release/arduino.ar(delay.c.o)
                              C:/sloeber-workspace/Samd51_DmaTest/Release/arduino.ar(CDC.cpp.o) (millis)
C:/sloeber-workspace/Samd51_DmaTest/Release/arduino.ar(hooks.c.o)
                              C:/sloeber-workspace/Samd51_DmaTest/Release/arduino.ar(delay.c.o) (yield)
C:/sloeber-workspace/Samd51_DmaTest/Release/arduino.ar(main.cpp.o)
                              c:/sloeber/arduinoplugin/packages/arduino/tools/arm-none-eabi-gcc/7-2017q4/bin/../lib/gcc/arm-none-eabi/7.2.1/../../../../arm-none-eabi/lib/thumb/v7e-m/fpv4-sp/hard/crt0.o (main)
C:/sloeber-workspace/Samd51_DmaTest/Release/arduino.ar(new.cpp.o)
                              C:/sloeber-workspace/Samd51_DmaTest/Release/arduino.ar(USBCore.cpp.o) (operator new(unsigned int))
C:/sloeber-workspace/Samd51_DmaTest/Release/arduino.ar(startup.c.o)
                              C:/sloeber-workspace/Samd51_DmaTest/Release/arduino.ar(cortex_handlers.c.o) (SystemInit)
C:/sloeber-workspace/Samd51_DmaTest/Release/arduino.ar(wiring.c.o)
                              C:/sloeber-workspace/Samd51_DmaTest/Release/arduino.ar(main.cpp.o) (init)
C:/sloeber-workspace/Samd51_DmaTest/Release/arduino.ar(wiring_analog.c.o)
                              C:/sloeber-workspace/Samd51_DmaTest/Release/arduino.ar(wiring.c.o) (analogReference)
C:/sloeber-workspace/Samd51_DmaTest/Release/arduino.ar(wiring_digital.c.o)
                              .\sloeber.ino.cpp.o (pinMode)
C:/sloeber-workspace/Samd51_DmaTest/Release/arduino.ar(wiring_private.c.o)
                              .\libraries\SPI\SPI.cpp.o (pinPeripheral)
C:/sloeber-workspace/Samd51_DmaTest/Release/arduino.ar(PluggableUSB.cpp.o)
                              C:/sloeber-workspace/Samd51_DmaTest/Release/arduino.ar(USBCore.cpp.o) (PluggableUSB_::getInterface(unsigned char*))
C:/sloeber-workspace/Samd51_DmaTest/Release/arduino.ar(SAMD21_USBDevice.cpp.o)
                              C:/sloeber-workspace/Samd51_DmaTest/Release/arduino.ar(USBCore.cpp.o) (USBDevice_SAMD21G18x::reset())
c:/sloeber/arduinoplugin/packages/arduino/tools/arm-none-eabi-gcc/7-2017q4/bin/../lib/gcc/arm-none-eabi/7.2.1/../../../../arm-none-eabi/lib/thumb/v7e-m/fpv4-sp/hard\libm.a(lib_a-w_pow.o)
                              .\sloeber.ino.cpp.o (pow)
c:/sloeber/arduinoplugin/packages/arduino/tools/arm-none-eabi-gcc/7-2017q4/bin/../lib/gcc/arm-none-eabi/7.2.1/../../../../arm-none-eabi/lib/thumb/v7e-m/fpv4-sp/hard\libm.a(lib_a-e_pow.o)
                              c:/sloeber/arduinoplugin/packages/arduino/tools/arm-none-eabi-gcc/7-2017q4/bin/../lib/gcc/arm-none-eabi/7.2.1/../../../../arm-none-eabi/lib/thumb/v7e-m/fpv4-sp/hard\libm.a(lib_a-w_pow.o) (__ieee754_pow)
c:/sloeber/arduinoplugin/packages/arduino/tools/arm-none-eabi-gcc/7-2017q4/bin/../lib/gcc/arm-none-eabi/7.2.1/../../../../arm-none-eabi/lib/thumb/v7e-m/fpv4-sp/hard\libm.a(lib_a-e_sqrt.o)
                              c:/sloeber/arduinoplugin/packages/arduino/tools/arm-none-eabi-gcc/7-2017q4/bin/../lib/gcc/arm-none-eabi/7.2.1/../../../../arm-none-eabi/lib/thumb/v7e-m/fpv4-sp/hard\libm.a(lib_a-e_pow.o) (__ieee754_sqrt)
c:/sloeber/arduinoplugin/packages/arduino/tools/arm-none-eabi-gcc/7-2017q4/bin/../lib/gcc/arm-none-eabi/7.2.1/../../../../arm-none-eabi/lib/thumb/v7e-m/fpv4-sp/hard\libm.a(lib_a-s_fabs.o)
                              c:/sloeber/arduinoplugin/packages/arduino/tools/arm-none-eabi-gcc/7-2017q4/bin/../lib/gcc/arm-none-eabi/7.2.1/../../../../arm-none-eabi/lib/thumb/v7e-m/fpv4-sp/hard\libm.a(lib_a-e_pow.o) (fabs)
c:/sloeber/arduinoplugin/packages/arduino/tools/arm-none-eabi-gcc/7-2017q4/bin/../lib/gcc/arm-none-eabi/7.2.1/../../../../arm-none-eabi/lib/thumb/v7e-m/fpv4-sp/hard\libm.a(lib_a-s_finite.o)
                              c:/sloeber/arduinoplugin/packages/arduino/tools/arm-none-eabi-gcc/7-2017q4/bin/../lib/gcc/arm-none-eabi/7.2.1/../../../../arm-none-eabi/lib/thumb/v7e-m/fpv4-sp/hard\libm.a(lib_a-w_pow.o) (finite)
c:/sloeber/arduinoplugin/packages/arduino/tools/arm-none-eabi-gcc/7-2017q4/bin/../lib/gcc/arm-none-eabi/7.2.1/../../../../arm-none-eabi/lib/thumb/v7e-m/fpv4-sp/hard\libm.a(lib_a-s_lib_ver.o)
                              c:/sloeber/arduinoplugin/packages/arduino/tools/arm-none-eabi-gcc/7-2017q4/bin/../lib/gcc/arm-none-eabi/7.2.1/../../../../arm-none-eabi/lib/thumb/v7e-m/fpv4-sp/hard\libm.a(lib_a-w_pow.o) (__fdlib_version)
c:/sloeber/arduinoplugin/packages/arduino/tools/arm-none-eabi-gcc/7-2017q4/bin/../lib/gcc/arm-none-eabi/7.2.1/../../../../arm-none-eabi/lib/thumb/v7e-m/fpv4-sp/hard\libm.a(lib_a-s_matherr.o)
                              c:/sloeber/arduinoplugin/packages/arduino/tools/arm-none-eabi-gcc/7-2017q4/bin/../lib/gcc/arm-none-eabi/7.2.1/../../../../arm-none-eabi/lib/thumb/v7e-m/fpv4-sp/hard\libm.a(lib_a-w_pow.o) (matherr)
c:/sloeber/arduinoplugin/packages/arduino/tools/arm-none-eabi-gcc/7-2017q4/bin/../lib/gcc/arm-none-eabi/7.2.1/../../../../arm-none-eabi/lib/thumb/v7e-m/fpv4-sp/hard\libm.a(lib_a-s_nan.o)
                              c:/sloeber/arduinoplugin/packages/arduino/tools/arm-none-eabi-gcc/7-2017q4/bin/../lib/gcc/arm-none-eabi/7.2.1/../../../../arm-none-eabi/lib/thumb/v7e-m/fpv4-sp/hard\libm.a(lib_a-e_pow.o) (nan)
c:/sloeber/arduinoplugin/packages/arduino/tools/arm-none-eabi-gcc/7-2017q4/bin/../lib/gcc/arm-none-eabi/7.2.1/../../../../arm-none-eabi/lib/thumb/v7e-m/fpv4-sp/hard\libm.a(lib_a-s_rint.o)
                              c:/sloeber/arduinoplugin/packages/arduino/tools/arm-none-eabi-gcc/7-2017q4/bin/../lib/gcc/arm-none-eabi/7.2.1/../../../../arm-none-eabi/lib/thumb/v7e-m/fpv4-sp/hard\libm.a(lib_a-w_pow.o) (rint)
c:/sloeber/arduinoplugin/packages/arduino/tools/arm-none-eabi-gcc/7-2017q4/bin/../lib/gcc/arm-none-eabi/7.2.1/../../../../arm-none-eabi/lib/thumb/v7e-m/fpv4-sp/hard\libm.a(lib_a-s_scalbn.o)
                              c:/sloeber/arduinoplugin/packages/arduino/tools/arm-none-eabi-gcc/7-2017q4/bin/../lib/gcc/arm-none-eabi/7.2.1/../../../../arm-none-eabi/lib/thumb/v7e-m/fpv4-sp/hard\libm.a(lib_a-e_pow.o) (scalbn)
c:/sloeber/arduinoplugin/packages/arduino/tools/arm-none-eabi-gcc/7-2017q4/bin/../lib/gcc/arm-none-eabi/7.2.1/../../../../arm-none-eabi/lib/thumb/v7e-m/fpv4-sp/hard\libm.a(lib_a-s_copysign.o)
                              c:/sloeber/arduinoplugin/packages/arduino/tools/arm-none-eabi-gcc/7-2017q4/bin/../lib/gcc/arm-none-eabi/7.2.1/../../../../arm-none-eabi/lib/thumb/v7e-m/fpv4-sp/hard\libm.a(lib_a-s_scalbn.o) (copysign)
c:/sloeber/arduinoplugin/packages/arduino/tools/arm-none-eabi-gcc/7-2017q4/bin/../lib/gcc/arm-none-eabi/7.2.1/thumb/v7e-m/fpv4-sp/hard\libgcc.a(_arm_addsubdf3.o)
                              C:/sloeber-workspace/Samd51_DmaTest/Release/arduino.ar(Print.cpp.o) (__aeabi_dsub)
c:/sloeber/arduinoplugin/packages/arduino/tools/arm-none-eabi-gcc/7-2017q4/bin/../lib/gcc/arm-none-eabi/7.2.1/thumb/v7e-m/fpv4-sp/hard\libgcc.a(_arm_muldivdf3.o)
                              C:/sloeber-workspace/Samd51_DmaTest/Release/arduino.ar(Print.cpp.o) (__aeabi_dmul)
c:/sloeber/arduinoplugin/packages/arduino/tools/arm-none-eabi-gcc/7-2017q4/bin/../lib/gcc/arm-none-eabi/7.2.1/thumb/v7e-m/fpv4-sp/hard\libgcc.a(_arm_cmpdf2.o)
                              c:/sloeber/arduinoplugin/packages/arduino/tools/arm-none-eabi-gcc/7-2017q4/bin/../lib/gcc/arm-none-eabi/7.2.1/../../../../arm-none-eabi/lib/thumb/v7e-m/fpv4-sp/hard\libm.a(lib_a-w_pow.o) (__aeabi_dcmpeq)
c:/sloeber/arduinoplugin/packages/arduino/tools/arm-none-eabi-gcc/7-2017q4/bin/../lib/gcc/arm-none-eabi/7.2.1/thumb/v7e-m/fpv4-sp/hard\libgcc.a(_arm_unorddf2.o)
                              C:/sloeber-workspace/Samd51_DmaTest/Release/arduino.ar(Print.cpp.o) (__aeabi_dcmpun)
c:/sloeber/arduinoplugin/packages/arduino/tools/arm-none-eabi-gcc/7-2017q4/bin/../lib/gcc/arm-none-eabi/7.2.1/thumb/v7e-m/fpv4-sp/hard\libgcc.a(_arm_fixunsdfsi.o)
                              C:/sloeber-workspace/Samd51_DmaTest/Release/arduino.ar(Print.cpp.o) (__aeabi_d2uiz)
c:/sloeber/arduinoplugin/packages/arduino/tools/arm-none-eabi-gcc/7-2017q4/bin/../lib/gcc/arm-none-eabi/7.2.1/../../../../arm-none-eabi/lib/thumb/v7e-m/fpv4-sp/hard\libc_nano.a(lib_a-assert.o)
                              .\libraries\SPI\SPI.cpp.o (__assert_func)
c:/sloeber/arduinoplugin/packages/arduino/tools/arm-none-eabi-gcc/7-2017q4/bin/../lib/gcc/arm-none-eabi/7.2.1/../../../../arm-none-eabi/lib/thumb/v7e-m/fpv4-sp/hard\libc_nano.a(lib_a-errno.o)
                              c:/sloeber/arduinoplugin/packages/arduino/tools/arm-none-eabi-gcc/7-2017q4/bin/../lib/gcc/arm-none-eabi/7.2.1/../../../../arm-none-eabi/lib/thumb/v7e-m/fpv4-sp/hard\libm.a(lib_a-w_pow.o) (__errno)
c:/sloeber/arduinoplugin/packages/arduino/tools/arm-none-eabi-gcc/7-2017q4/bin/../lib/gcc/arm-none-eabi/7.2.1/../../../../arm-none-eabi/lib/thumb/v7e-m/fpv4-sp/hard\libc_nano.a(lib_a-exit.o)
                              c:/sloeber/arduinoplugin/packages/arduino/tools/arm-none-eabi-gcc/7-2017q4/bin/../lib/gcc/arm-none-eabi/7.2.1/../../../../arm-none-eabi/lib/thumb/v7e-m/fpv4-sp/hard/crt0.o (exit)
c:/sloeber/arduinoplugin/packages/arduino/tools/arm-none-eabi-gcc/7-2017q4/bin/../lib/gcc/arm-none-eabi/7.2.1/../../../../arm-none-eabi/lib/thumb/v7e-m/fpv4-sp/hard\libc_nano.a(lib_a-fprintf.o)
                              c:/sloeber/arduinoplugin/packages/arduino/tools/arm-none-eabi-gcc/7-2017q4/bin/../lib/gcc/arm-none-eabi/7.2.1/../../../../arm-none-eabi/lib/thumb/v7e-m/fpv4-sp/hard\libc_nano.a(lib_a-assert.o) (fiprintf)
c:/sloeber/arduinoplugin/packages/arduino/tools/arm-none-eabi-gcc/7-2017q4/bin/../lib/gcc/arm-none-eabi/7.2.1/../../../../arm-none-eabi/lib/thumb/v7e-m/fpv4-sp/hard\libc_nano.a(lib_a-impure.o)
                              c:/sloeber/arduinoplugin/packages/arduino/tools/arm-none-eabi-gcc/7-2017q4/bin/../lib/gcc/arm-none-eabi/7.2.1/../../../../arm-none-eabi/lib/thumb/v7e-m/fpv4-sp/hard\libc_nano.a(lib_a-exit.o) (_global_impure_ptr)
c:/sloeber/arduinoplugin/packages/arduino/tools/arm-none-eabi-gcc/7-2017q4/bin/../lib/gcc/arm-none-eabi/7.2.1/../../../../arm-none-eabi/lib/thumb/v7e-m/fpv4-sp/hard\libc_nano.a(lib_a-init.o)
                              c:/sloeber/arduinoplugin/packages/arduino/tools/arm-none-eabi-gcc/7-2017q4/bin/../lib/gcc/arm-none-eabi/7.2.1/../../../../arm-none-eabi/lib/thumb/v7e-m/fpv4-sp/hard/crt0.o (__libc_init_array)
c:/sloeber/arduinoplugin/packages/arduino/tools/arm-none-eabi-gcc/7-2017q4/bin/../lib/gcc/arm-none-eabi/7.2.1/../../../../arm-none-eabi/lib/thumb/v7e-m/fpv4-sp/hard\libc_nano.a(lib_a-malign.o)
                              .\libraries\Adafruit_ZeroDMA\Adafruit_ZeroDMA.cpp.o (memalign)
c:/sloeber/arduinoplugin/packages/arduino/tools/arm-none-eabi-gcc/7-2017q4/bin/../lib/gcc/arm-none-eabi/7.2.1/../../../../arm-none-eabi/lib/thumb/v7e-m/fpv4-sp/hard\libc_nano.a(lib_a-malloc.o)
                              C:/sloeber-workspace/Samd51_DmaTest/Release/arduino.ar(USBCore.cpp.o) (malloc)
c:/sloeber/arduinoplugin/packages/arduino/tools/arm-none-eabi-gcc/7-2017q4/bin/../lib/gcc/arm-none-eabi/7.2.1/../../../../arm-none-eabi/lib/thumb/v7e-m/fpv4-sp/hard\libc_nano.a(lib_a-memcpy-stub.o)
                              C:/sloeber-workspace/Samd51_DmaTest/Release/arduino.ar(USBCore.cpp.o) (memcpy)
c:/sloeber/arduinoplugin/packages/arduino/tools/arm-none-eabi-gcc/7-2017q4/bin/../lib/gcc/arm-none-eabi/7.2.1/../../../../arm-none-eabi/lib/thumb/v7e-m/fpv4-sp/hard\libc_nano.a(lib_a-memset.o)
                              c:/sloeber/arduinoplugin/packages/arduino/tools/arm-none-eabi-gcc/7-2017q4/bin/../lib/gcc/arm-none-eabi/7.2.1/../../../../arm-none-eabi/lib/thumb/v7e-m/fpv4-sp/hard/crt0.o (memset)
c:/sloeber/arduinoplugin/packages/arduino/tools/arm-none-eabi-gcc/7-2017q4/bin/../lib/gcc/arm-none-eabi/7.2.1/../../../../arm-none-eabi/lib/thumb/v7e-m/fpv4-sp/hard\libc_nano.a(lib_a-nano-freer.o)
                              c:/sloeber/arduinoplugin/packages/arduino/tools/arm-none-eabi-gcc/7-2017q4/bin/../lib/gcc/arm-none-eabi/7.2.1/../../../../arm-none-eabi/lib/thumb/v7e-m/fpv4-sp/hard\libc_nano.a(lib_a-malloc.o) (_free_r)
c:/sloeber/arduinoplugin/packages/arduino/tools/arm-none-eabi-gcc/7-2017q4/bin/../lib/gcc/arm-none-eabi/7.2.1/../../../../arm-none-eabi/lib/thumb/v7e-m/fpv4-sp/hard\libc_nano.a(lib_a-nano-malignr.o)
                              c:/sloeber/arduinoplugin/packages/arduino/tools/arm-none-eabi-gcc/7-2017q4/bin/../lib/gcc/arm-none-eabi/7.2.1/../../../../arm-none-eabi/lib/thumb/v7e-m/fpv4-sp/hard\libc_nano.a(lib_a-malign.o) (_memalign_r)
c:/sloeber/arduinoplugin/packages/arduino/tools/arm-none-eabi-gcc/7-2017q4/bin/../lib/gcc/arm-none-eabi/7.2.1/../../../../arm-none-eabi/lib/thumb/v7e-m/fpv4-sp/hard\libc_nano.a(lib_a-nano-mallocr.o)
                              c:/sloeber/arduinoplugin/packages/arduino/tools/arm-none-eabi-gcc/7-2017q4/bin/../lib/gcc/arm-none-eabi/7.2.1/../../../../arm-none-eabi/lib/thumb/v7e-m/fpv4-sp/hard\libc_nano.a(lib_a-malloc.o) (_malloc_r)
c:/sloeber/arduinoplugin/packages/arduino/tools/arm-none-eabi-gcc/7-2017q4/bin/../lib/gcc/arm-none-eabi/7.2.1/../../../../arm-none-eabi/lib/thumb/v7e-m/fpv4-sp/hard\libc_nano.a(lib_a-nano-vfprintf.o)
                              c:/sloeber/arduinoplugin/packages/arduino/tools/arm-none-eabi-gcc/7-2017q4/bin/../lib/gcc/arm-none-eabi/7.2.1/../../../../arm-none-eabi/lib/thumb/v7e-m/fpv4-sp/hard\libc_nano.a(lib_a-fprintf.o) (_vfprintf_r)
c:/sloeber/arduinoplugin/packages/arduino/tools/arm-none-eabi-gcc/7-2017q4/bin/../lib/gcc/arm-none-eabi/7.2.1/../../../../arm-none-eabi/lib/thumb/v7e-m/fpv4-sp/hard\libc_nano.a(lib_a-nano-vfprintf_i.o)
                              c:/sloeber/arduinoplugin/packages/arduino/tools/arm-none-eabi-gcc/7-2017q4/bin/../lib/gcc/arm-none-eabi/7.2.1/../../../../arm-none-eabi/lib/thumb/v7e-m/fpv4-sp/hard\libc_nano.a(lib_a-nano-vfprintf.o) (_printf_i)
c:/sloeber/arduinoplugin/packages/arduino/tools/arm-none-eabi-gcc/7-2017q4/bin/../lib/gcc/arm-none-eabi/7.2.1/../../../../arm-none-eabi/lib/thumb/v7e-m/fpv4-sp/hard\libc_nano.a(lib_a-sbrkr.o)
                              c:/sloeber/arduinoplugin/packages/arduino/tools/arm-none-eabi-gcc/7-2017q4/bin/../lib/gcc/arm-none-eabi/7.2.1/../../../../arm-none-eabi/lib/thumb/v7e-m/fpv4-sp/hard\libc_nano.a(lib_a-nano-mallocr.o) (_sbrk_r)
c:/sloeber/arduinoplugin/packages/arduino/tools/arm-none-eabi-gcc/7-2017q4/bin/../lib/gcc/arm-none-eabi/7.2.1/../../../../arm-none-eabi/lib/thumb/v7e-m/fpv4-sp/hard\libc_nano.a(lib_a-strlen.o)
                              C:/sloeber-workspace/Samd51_DmaTest/Release/arduino.ar(USBCore.cpp.o) (strlen)
c:/sloeber/arduinoplugin/packages/arduino/tools/arm-none-eabi-gcc/7-2017q4/bin/../lib/gcc/arm-none-eabi/7.2.1/../../../../arm-none-eabi/lib/thumb/v7e-m/fpv4-sp/hard\libc_nano.a(lib_a-vsnprintf.o)
                              C:/sloeber-workspace/Samd51_DmaTest/Release/arduino.ar(Print.cpp.o) (vsnprintf)
c:/sloeber/arduinoplugin/packages/arduino/tools/arm-none-eabi-gcc/7-2017q4/bin/../lib/gcc/arm-none-eabi/7.2.1/../../../../arm-none-eabi/lib/thumb/v7e-m/fpv4-sp/hard\libc_nano.a(lib_a-wbuf.o)
                              c:/sloeber/arduinoplugin/packages/arduino/tools/arm-none-eabi-gcc/7-2017q4/bin/../lib/gcc/arm-none-eabi/7.2.1/../../../../arm-none-eabi/lib/thumb/v7e-m/fpv4-sp/hard\libc_nano.a(lib_a-nano-vfprintf.o) (__swbuf_r)
c:/sloeber/arduinoplugin/packages/arduino/tools/arm-none-eabi-gcc/7-2017q4/bin/../lib/gcc/arm-none-eabi/7.2.1/../../../../arm-none-eabi/lib/thumb/v7e-m/fpv4-sp/hard\libc_nano.a(lib_a-wsetup.o)
                              c:/sloeber/arduinoplugin/packages/arduino/tools/arm-none-eabi-gcc/7-2017q4/bin/../lib/gcc/arm-none-eabi/7.2.1/../../../../arm-none-eabi/lib/thumb/v7e-m/fpv4-sp/hard\libc_nano.a(lib_a-nano-vfprintf.o) (__swsetup_r)
c:/sloeber/arduinoplugin/packages/arduino/tools/arm-none-eabi-gcc/7-2017q4/bin/../lib/gcc/arm-none-eabi/7.2.1/../../../../arm-none-eabi/lib/thumb/v7e-m/fpv4-sp/hard\libc_nano.a(lib_a-abort.o)
                              c:/sloeber/arduinoplugin/packages/arduino/tools/arm-none-eabi-gcc/7-2017q4/bin/../lib/gcc/arm-none-eabi/7.2.1/../../../../arm-none-eabi/lib/thumb/v7e-m/fpv4-sp/hard\libc_nano.a(lib_a-assert.o) (abort)
c:/sloeber/arduinoplugin/packages/arduino/tools/arm-none-eabi-gcc/7-2017q4/bin/../lib/gcc/arm-none-eabi/7.2.1/../../../../arm-none-eabi/lib/thumb/v7e-m/fpv4-sp/hard\libc_nano.a(lib_a-fflush.o)
                              c:/sloeber/arduinoplugin/packages/arduino/tools/arm-none-eabi-gcc/7-2017q4/bin/../lib/gcc/arm-none-eabi/7.2.1/../../../../arm-none-eabi/lib/thumb/v7e-m/fpv4-sp/hard\libc_nano.a(lib_a-wbuf.o) (_fflush_r)
c:/sloeber/arduinoplugin/packages/arduino/tools/arm-none-eabi-gcc/7-2017q4/bin/../lib/gcc/arm-none-eabi/7.2.1/../../../../arm-none-eabi/lib/thumb/v7e-m/fpv4-sp/hard\libc_nano.a(lib_a-findfp.o)
                              c:/sloeber/arduinoplugin/packages/arduino/tools/arm-none-eabi-gcc/7-2017q4/bin/../lib/gcc/arm-none-eabi/7.2.1/../../../../arm-none-eabi/lib/thumb/v7e-m/fpv4-sp/hard\libc_nano.a(lib_a-nano-vfprintf.o) (__sinit)
c:/sloeber/arduinoplugin/packages/arduino/tools/arm-none-eabi-gcc/7-2017q4/bin/../lib/gcc/arm-none-eabi/7.2.1/../../../../arm-none-eabi/lib/thumb/v7e-m/fpv4-sp/hard\libc_nano.a(lib_a-fvwrite.o)
                              c:/sloeber/arduinoplugin/packages/arduino/tools/arm-none-eabi-gcc/7-2017q4/bin/../lib/gcc/arm-none-eabi/7.2.1/../../../../arm-none-eabi/lib/thumb/v7e-m/fpv4-sp/hard\libc_nano.a(lib_a-nano-vfprintf.o) (__sfvwrite_r)
c:/sloeber/arduinoplugin/packages/arduino/tools/arm-none-eabi-gcc/7-2017q4/bin/../lib/gcc/arm-none-eabi/7.2.1/../../../../arm-none-eabi/lib/thumb/v7e-m/fpv4-sp/hard\libc_nano.a(lib_a-fwalk.o)
                              c:/sloeber/arduinoplugin/packages/arduino/tools/arm-none-eabi-gcc/7-2017q4/bin/../lib/gcc/arm-none-eabi/7.2.1/../../../../arm-none-eabi/lib/thumb/v7e-m/fpv4-sp/hard\libc_nano.a(lib_a-findfp.o) (_fwalk)
c:/sloeber/arduinoplugin/packages/arduino/tools/arm-none-eabi-gcc/7-2017q4/bin/../lib/gcc/arm-none-eabi/7.2.1/../../../../arm-none-eabi/lib/thumb/v7e-m/fpv4-sp/hard\libc_nano.a(lib_a-makebuf.o)
                              c:/sloeber/arduinoplugin/packages/arduino/tools/arm-none-eabi-gcc/7-2017q4/bin/../lib/gcc/arm-none-eabi/7.2.1/../../../../arm-none-eabi/lib/thumb/v7e-m/fpv4-sp/hard\libc_nano.a(lib_a-wsetup.o) (__smakebuf_r)
c:/sloeber/arduinoplugin/packages/arduino/tools/arm-none-eabi-gcc/7-2017q4/bin/../lib/gcc/arm-none-eabi/7.2.1/../../../../arm-none-eabi/lib/thumb/v7e-m/fpv4-sp/hard\libc_nano.a(lib_a-memchr.o)
                              c:/sloeber/arduinoplugin/packages/arduino/tools/arm-none-eabi-gcc/7-2017q4/bin/../lib/gcc/arm-none-eabi/7.2.1/../../../../arm-none-eabi/lib/thumb/v7e-m/fpv4-sp/hard\libc_nano.a(lib_a-nano-vfprintf.o) (memchr)
c:/sloeber/arduinoplugin/packages/arduino/tools/arm-none-eabi-gcc/7-2017q4/bin/../lib/gcc/arm-none-eabi/7.2.1/../../../../arm-none-eabi/lib/thumb/v7e-m/fpv4-sp/hard\libc_nano.a(lib_a-memmove.o)
                              c:/sloeber/arduinoplugin/packages/arduino/tools/arm-none-eabi-gcc/7-2017q4/bin/../lib/gcc/arm-none-eabi/7.2.1/../../../../arm-none-eabi/lib/thumb/v7e-m/fpv4-sp/hard\libc_nano.a(lib_a-fvwrite.o) (memmove)
c:/sloeber/arduinoplugin/packages/arduino/tools/arm-none-eabi-gcc/7-2017q4/bin/../lib/gcc/arm-none-eabi/7.2.1/../../../../arm-none-eabi/lib/thumb/v7e-m/fpv4-sp/hard\libc_nano.a(lib_a-mlock.o)
                              c:/sloeber/arduinoplugin/packages/arduino/tools/arm-none-eabi-gcc/7-2017q4/bin/../lib/gcc/arm-none-eabi/7.2.1/../../../../arm-none-eabi/lib/thumb/v7e-m/fpv4-sp/hard\libc_nano.a(lib_a-nano-freer.o) (__malloc_lock)
c:/sloeber/arduinoplugin/packages/arduino/tools/arm-none-eabi-gcc/7-2017q4/bin/../lib/gcc/arm-none-eabi/7.2.1/../../../../arm-none-eabi/lib/thumb/v7e-m/fpv4-sp/hard\libc_nano.a(lib_a-nano-reallocr.o)
                              c:/sloeber/arduinoplugin/packages/arduino/tools/arm-none-eabi-gcc/7-2017q4/bin/../lib/gcc/arm-none-eabi/7.2.1/../../../../arm-none-eabi/lib/thumb/v7e-m/fpv4-sp/hard\libc_nano.a(lib_a-fvwrite.o) (_realloc_r)
c:/sloeber/arduinoplugin/packages/arduino/tools/arm-none-eabi-gcc/7-2017q4/bin/../lib/gcc/arm-none-eabi/7.2.1/../../../../arm-none-eabi/lib/thumb/v7e-m/fpv4-sp/hard\libc_nano.a(lib_a-nano-svfprintf.o)
                              c:/sloeber/arduinoplugin/packages/arduino/tools/arm-none-eabi-gcc/7-2017q4/bin/../lib/gcc/arm-none-eabi/7.2.1/../../../../arm-none-eabi/lib/thumb/v7e-m/fpv4-sp/hard\libc_nano.a(lib_a-vsnprintf.o) (_svfprintf_r)
c:/sloeber/arduinoplugin/packages/arduino/tools/arm-none-eabi-gcc/7-2017q4/bin/../lib/gcc/arm-none-eabi/7.2.1/../../../../arm-none-eabi/lib/thumb/v7e-m/fpv4-sp/hard\libc_nano.a(lib_a-reent.o)
                              c:/sloeber/arduinoplugin/packages/arduino/tools/arm-none-eabi-gcc/7-2017q4/bin/../lib/gcc/arm-none-eabi/7.2.1/../../../../arm-none-eabi/lib/thumb/v7e-m/fpv4-sp/hard\libc_nano.a(lib_a-sbrkr.o) (errno)
c:/sloeber/arduinoplugin/packages/arduino/tools/arm-none-eabi-gcc/7-2017q4/bin/../lib/gcc/arm-none-eabi/7.2.1/../../../../arm-none-eabi/lib/thumb/v7e-m/fpv4-sp/hard\libc_nano.a(lib_a-signal.o)
                              c:/sloeber/arduinoplugin/packages/arduino/tools/arm-none-eabi-gcc/7-2017q4/bin/../lib/gcc/arm-none-eabi/7.2.1/../../../../arm-none-eabi/lib/thumb/v7e-m/fpv4-sp/hard\libc_nano.a(lib_a-abort.o) (raise)
c:/sloeber/arduinoplugin/packages/arduino/tools/arm-none-eabi-gcc/7-2017q4/bin/../lib/gcc/arm-none-eabi/7.2.1/../../../../arm-none-eabi/lib/thumb/v7e-m/fpv4-sp/hard\libc_nano.a(lib_a-signalr.o)
                              c:/sloeber/arduinoplugin/packages/arduino/tools/arm-none-eabi-gcc/7-2017q4/bin/../lib/gcc/arm-none-eabi/7.2.1/../../../../arm-none-eabi/lib/thumb/v7e-m/fpv4-sp/hard\libc_nano.a(lib_a-signal.o) (_kill_r)
c:/sloeber/arduinoplugin/packages/arduino/tools/arm-none-eabi-gcc/7-2017q4/bin/../lib/gcc/arm-none-eabi/7.2.1/../../../../arm-none-eabi/lib/thumb/v7e-m/fpv4-sp/hard\libc_nano.a(lib_a-stdio.o)
                              c:/sloeber/arduinoplugin/packages/arduino/tools/arm-none-eabi-gcc/7-2017q4/bin/../lib/gcc/arm-none-eabi/7.2.1/../../../../arm-none-eabi/lib/thumb/v7e-m/fpv4-sp/hard\libc_nano.a(lib_a-findfp.o) (__sread)
c:/sloeber/arduinoplugin/packages/arduino/tools/arm-none-eabi-gcc/7-2017q4/bin/../lib/gcc/arm-none-eabi/7.2.1/../../../../arm-none-eabi/lib/thumb/v7e-m/fpv4-sp/hard\libc_nano.a(lib_a-writer.o)
                              c:/sloeber/arduinoplugin/packages/arduino/tools/arm-none-eabi-gcc/7-2017q4/bin/../lib/gcc/arm-none-eabi/7.2.1/../../../../arm-none-eabi/lib/thumb/v7e-m/fpv4-sp/hard\libc_nano.a(lib_a-stdio.o) (_write_r)
c:/sloeber/arduinoplugin/packages/arduino/tools/arm-none-eabi-gcc/7-2017q4/bin/../lib/gcc/arm-none-eabi/7.2.1/../../../../arm-none-eabi/lib/thumb/v7e-m/fpv4-sp/hard\libc_nano.a(lib_a-closer.o)
                              c:/sloeber/arduinoplugin/packages/arduino/tools/arm-none-eabi-gcc/7-2017q4/bin/../lib/gcc/arm-none-eabi/7.2.1/../../../../arm-none-eabi/lib/thumb/v7e-m/fpv4-sp/hard\libc_nano.a(lib_a-stdio.o) (_close_r)
c:/sloeber/arduinoplugin/packages/arduino/tools/arm-none-eabi-gcc/7-2017q4/bin/../lib/gcc/arm-none-eabi/7.2.1/../../../../arm-none-eabi/lib/thumb/v7e-m/fpv4-sp/hard\libc_nano.a(lib_a-fstatr.o)
                              c:/sloeber/arduinoplugin/packages/arduino/tools/arm-none-eabi-gcc/7-2017q4/bin/../lib/gcc/arm-none-eabi/7.2.1/../../../../arm-none-eabi/lib/thumb/v7e-m/fpv4-sp/hard\libc_nano.a(lib_a-makebuf.o) (_fstat_r)
c:/sloeber/arduinoplugin/packages/arduino/tools/arm-none-eabi-gcc/7-2017q4/bin/../lib/gcc/arm-none-eabi/7.2.1/../../../../arm-none-eabi/lib/thumb/v7e-m/fpv4-sp/hard\libc_nano.a(lib_a-isattyr.o)
                              c:/sloeber/arduinoplugin/packages/arduino/tools/arm-none-eabi-gcc/7-2017q4/bin/../lib/gcc/arm-none-eabi/7.2.1/../../../../arm-none-eabi/lib/thumb/v7e-m/fpv4-sp/hard\libc_nano.a(lib_a-makebuf.o) (_isatty_r)
c:/sloeber/arduinoplugin/packages/arduino/tools/arm-none-eabi-gcc/7-2017q4/bin/../lib/gcc/arm-none-eabi/7.2.1/../../../../arm-none-eabi/lib/thumb/v7e-m/fpv4-sp/hard\libc_nano.a(lib_a-lseekr.o)
                              c:/sloeber/arduinoplugin/packages/arduino/tools/arm-none-eabi-gcc/7-2017q4/bin/../lib/gcc/arm-none-eabi/7.2.1/../../../../arm-none-eabi/lib/thumb/v7e-m/fpv4-sp/hard\libc_nano.a(lib_a-stdio.o) (_lseek_r)
c:/sloeber/arduinoplugin/packages/arduino/tools/arm-none-eabi-gcc/7-2017q4/bin/../lib/gcc/arm-none-eabi/7.2.1/../../../../arm-none-eabi/lib/thumb/v7e-m/fpv4-sp/hard\libc_nano.a(lib_a-nano-msizer.o)
                              c:/sloeber/arduinoplugin/packages/arduino/tools/arm-none-eabi-gcc/7-2017q4/bin/../lib/gcc/arm-none-eabi/7.2.1/../../../../arm-none-eabi/lib/thumb/v7e-m/fpv4-sp/hard\libc_nano.a(lib_a-nano-reallocr.o) (_malloc_usable_size_r)
c:/sloeber/arduinoplugin/packages/arduino/tools/arm-none-eabi-gcc/7-2017q4/bin/../lib/gcc/arm-none-eabi/7.2.1/../../../../arm-none-eabi/lib/thumb/v7e-m/fpv4-sp/hard\libc_nano.a(lib_a-readr.o)
                              c:/sloeber/arduinoplugin/packages/arduino/tools/arm-none-eabi-gcc/7-2017q4/bin/../lib/gcc/arm-none-eabi/7.2.1/../../../../arm-none-eabi/lib/thumb/v7e-m/fpv4-sp/hard\libc_nano.a(lib_a-stdio.o) (_read_r)
c:/sloeber/arduinoplugin/packages/arduino/tools/arm-none-eabi-gcc/7-2017q4/bin/../lib/gcc/arm-none-eabi/7.2.1/../../../../arm-none-eabi/lib/thumb/v7e-m/fpv4-sp/hard\libnosys.a(close.o)
                              c:/sloeber/arduinoplugin/packages/arduino/tools/arm-none-eabi-gcc/7-2017q4/bin/../lib/gcc/arm-none-eabi/7.2.1/../../../../arm-none-eabi/lib/thumb/v7e-m/fpv4-sp/hard\libc_nano.a(lib_a-closer.o) (_close)
c:/sloeber/arduinoplugin/packages/arduino/tools/arm-none-eabi-gcc/7-2017q4/bin/../lib/gcc/arm-none-eabi/7.2.1/../../../../arm-none-eabi/lib/thumb/v7e-m/fpv4-sp/hard\libnosys.a(fstat.o)
                              c:/sloeber/arduinoplugin/packages/arduino/tools/arm-none-eabi-gcc/7-2017q4/bin/../lib/gcc/arm-none-eabi/7.2.1/../../../../arm-none-eabi/lib/thumb/v7e-m/fpv4-sp/hard\libc_nano.a(lib_a-fstatr.o) (_fstat)
c:/sloeber/arduinoplugin/packages/arduino/tools/arm-none-eabi-gcc/7-2017q4/bin/../lib/gcc/arm-none-eabi/7.2.1/../../../../arm-none-eabi/lib/thumb/v7e-m/fpv4-sp/hard\libnosys.a(getpid.o)
                              c:/sloeber/arduinoplugin/packages/arduino/tools/arm-none-eabi-gcc/7-2017q4/bin/../lib/gcc/arm-none-eabi/7.2.1/../../../../arm-none-eabi/lib/thumb/v7e-m/fpv4-sp/hard\libc_nano.a(lib_a-signalr.o) (_getpid)
c:/sloeber/arduinoplugin/packages/arduino/tools/arm-none-eabi-gcc/7-2017q4/bin/../lib/gcc/arm-none-eabi/7.2.1/../../../../arm-none-eabi/lib/thumb/v7e-m/fpv4-sp/hard\libnosys.a(isatty.o)
                              c:/sloeber/arduinoplugin/packages/arduino/tools/arm-none-eabi-gcc/7-2017q4/bin/../lib/gcc/arm-none-eabi/7.2.1/../../../../arm-none-eabi/lib/thumb/v7e-m/fpv4-sp/hard\libc_nano.a(lib_a-isattyr.o) (_isatty)
c:/sloeber/arduinoplugin/packages/arduino/tools/arm-none-eabi-gcc/7-2017q4/bin/../lib/gcc/arm-none-eabi/7.2.1/../../../../arm-none-eabi/lib/thumb/v7e-m/fpv4-sp/hard\libnosys.a(kill.o)
                              c:/sloeber/arduinoplugin/packages/arduino/tools/arm-none-eabi-gcc/7-2017q4/bin/../lib/gcc/arm-none-eabi/7.2.1/../../../../arm-none-eabi/lib/thumb/v7e-m/fpv4-sp/hard\libc_nano.a(lib_a-signalr.o) (_kill)
c:/sloeber/arduinoplugin/packages/arduino/tools/arm-none-eabi-gcc/7-2017q4/bin/../lib/gcc/arm-none-eabi/7.2.1/../../../../arm-none-eabi/lib/thumb/v7e-m/fpv4-sp/hard\libnosys.a(lseek.o)
                              c:/sloeber/arduinoplugin/packages/arduino/tools/arm-none-eabi-gcc/7-2017q4/bin/../lib/gcc/arm-none-eabi/7.2.1/../../../../arm-none-eabi/lib/thumb/v7e-m/fpv4-sp/hard\libc_nano.a(lib_a-lseekr.o) (_lseek)
c:/sloeber/arduinoplugin/packages/arduino/tools/arm-none-eabi-gcc/7-2017q4/bin/../lib/gcc/arm-none-eabi/7.2.1/../../../../arm-none-eabi/lib/thumb/v7e-m/fpv4-sp/hard\libnosys.a(read.o)
                              c:/sloeber/arduinoplugin/packages/arduino/tools/arm-none-eabi-gcc/7-2017q4/bin/../lib/gcc/arm-none-eabi/7.2.1/../../../../arm-none-eabi/lib/thumb/v7e-m/fpv4-sp/hard\libc_nano.a(lib_a-readr.o) (_read)
c:/sloeber/arduinoplugin/packages/arduino/tools/arm-none-eabi-gcc/7-2017q4/bin/../lib/gcc/arm-none-eabi/7.2.1/../../../../arm-none-eabi/lib/thumb/v7e-m/fpv4-sp/hard\libnosys.a(sbrk.o)
                              c:/sloeber/arduinoplugin/packages/arduino/tools/arm-none-eabi-gcc/7-2017q4/bin/../lib/gcc/arm-none-eabi/7.2.1/../../../../arm-none-eabi/lib/thumb/v7e-m/fpv4-sp/hard\libc_nano.a(lib_a-sbrkr.o) (_sbrk)
c:/sloeber/arduinoplugin/packages/arduino/tools/arm-none-eabi-gcc/7-2017q4/bin/../lib/gcc/arm-none-eabi/7.2.1/../../../../arm-none-eabi/lib/thumb/v7e-m/fpv4-sp/hard\libnosys.a(write.o)
                              c:/sloeber/arduinoplugin/packages/arduino/tools/arm-none-eabi-gcc/7-2017q4/bin/../lib/gcc/arm-none-eabi/7.2.1/../../../../arm-none-eabi/lib/thumb/v7e-m/fpv4-sp/hard\libc_nano.a(lib_a-writer.o) (_write)
c:/sloeber/arduinoplugin/packages/arduino/tools/arm-none-eabi-gcc/7-2017q4/bin/../lib/gcc/arm-none-eabi/7.2.1/../../../../arm-none-eabi/lib/thumb/v7e-m/fpv4-sp/hard\libnosys.a(_exit.o)
                              c:/sloeber/arduinoplugin/packages/arduino/tools/arm-none-eabi-gcc/7-2017q4/bin/../lib/gcc/arm-none-eabi/7.2.1/../../../../arm-none-eabi/lib/thumb/v7e-m/fpv4-sp/hard\libc_nano.a(lib_a-exit.o) (_exit)

Allocating common symbols
Common symbol       size              file

errno               0x4               c:/sloeber/arduinoplugin/packages/arduino/tools/arm-none-eabi-gcc/7-2017q4/bin/../lib/gcc/arm-none-eabi/7.2.1/../../../../arm-none-eabi/lib/thumb/v7e-m/fpv4-sp/hard\libc_nano.a(lib_a-reent.o)

Discarded input sections

 .text          0x00000000        0x0 c:/sloeber/arduinoplugin/packages/arduino/tools/arm-none-eabi-gcc/7-2017q4/bin/../lib/gcc/arm-none-eabi/7.2.1/thumb/v7e-m/fpv4-sp/hard/crti.o
 .data          0x00000000        0x0 c:/sloeber/arduinoplugin/packages/arduino/tools/arm-none-eabi-gcc/7-2017q4/bin/../lib/gcc/arm-none-eabi/7.2.1/thumb/v7e-m/fpv4-sp/hard/crti.o
 .bss           0x00000000        0x0 c:/sloeber/arduinoplugin/packages/arduino/tools/arm-none-eabi-gcc/7-2017q4/bin/../lib/gcc/arm-none-eabi/7.2.1/thumb/v7e-m/fpv4-sp/hard/crti.o
 .data          0x00000000        0x4 c:/sloeber/arduinoplugin/packages/arduino/tools/arm-none-eabi-gcc/7-2017q4/bin/../lib/gcc/arm-none-eabi/7.2.1/thumb/v7e-m/fpv4-sp/hard/crtbegin.o
 .text          0x00000000       0x74 c:/sloeber/arduinoplugin/packages/arduino/tools/arm-none-eabi-gcc/7-2017q4/bin/../lib/gcc/arm-none-eabi/7.2.1/../../../../arm-none-eabi/lib/thumb/v7e-m/fpv4-sp/hard/crt0.o
 .data          0x00000000        0x0 c:/sloeber/arduinoplugin/packages/arduino/tools/arm-none-eabi-gcc/7-2017q4/bin/../lib/gcc/arm-none-eabi/7.2.1/../../../../arm-none-eabi/lib/thumb/v7e-m/fpv4-sp/hard/crt0.o
 .bss           0x00000000        0x0 c:/sloeber/arduinoplugin/packages/arduino/tools/arm-none-eabi-gcc/7-2017q4/bin/../lib/gcc/arm-none-eabi/7.2.1/../../../../arm-none-eabi/lib/thumb/v7e-m/fpv4-sp/hard/crt0.o
 .ARM.extab     0x00000000        0x0 c:/sloeber/arduinoplugin/packages/arduino/tools/arm-none-eabi-gcc/7-2017q4/bin/../lib/gcc/arm-none-eabi/7.2.1/../../../../arm-none-eabi/lib/thumb/v7e-m/fpv4-sp/hard/crt0.o
 .ARM.exidx     0x00000000        0x8 c:/sloeber/arduinoplugin/packages/arduino/tools/arm-none-eabi-gcc/7-2017q4/bin/../lib/gcc/arm-none-eabi/7.2.1/../../../../arm-none-eabi/lib/thumb/v7e-m/fpv4-sp/hard/crt0.o
 .ARM.attributes
                0x00000000       0x20 c:/sloeber/arduinoplugin/packages/arduino/tools/arm-none-eabi-gcc/7-2017q4/bin/../lib/gcc/arm-none-eabi/7.2.1/../../../../arm-none-eabi/lib/thumb/v7e-m/fpv4-sp/hard/crt0.o
 .text          0x00000000        0x0 .\sloeber.ino.cpp.o
 .data          0x00000000        0x0 .\sloeber.ino.cpp.o
 .bss           0x00000000        0x0 .\sloeber.ino.cpp.o
 .text._Z4dumpPh
                0x00000000       0xa0 .\sloeber.ino.cpp.o
 .text._Z16callback_dmaDonev
                0x00000000        0xc .\sloeber.ino.cpp.o
 .bss.dmaDone   0x00000000        0x1 .\sloeber.ino.cpp.o
 .rodata._Z4dumpPh.str1.1
                0x00000000        0x2 .\sloeber.ino.cpp.o
 .text          0x00000000        0x0 .\libraries\SPI\SPI.cpp.o
 .data          0x00000000        0x0 .\libraries\SPI\SPI.cpp.o
 .bss           0x00000000        0x0 .\libraries\SPI\SPI.cpp.o
 .text._ZN8SPIClass3endEv
                0x00000000       0x10 .\libraries\SPI\SPI.cpp.o
 .text._ZN8SPIClass14usingInterruptEi
                0x00000000       0x44 .\libraries\SPI\SPI.cpp.o
 .text._ZN8SPIClass17notUsingInterruptEi
                0x00000000       0x40 .\libraries\SPI\SPI.cpp.o
 .text._ZN8SPIClass11setBitOrderE8BitOrder
                0x00000000        0xe .\libraries\SPI\SPI.cpp.o
 .text._ZN8SPIClass11setDataModeEh
                0x00000000       0x22 .\libraries\SPI\SPI.cpp.o
 .text._ZN8SPIClass15setClockDividerEh
                0x00000000        0xa .\libraries\SPI\SPI.cpp.o
 .text._ZN8SPIClass8transferEh
                0x00000000        0x6 .\libraries\SPI\SPI.cpp.o
 .text._ZN8SPIClass10transfer16Et
                0x00000000       0x4e .\libraries\SPI\SPI.cpp.o
 .text._ZN8SPIClass8transferEPvj
                0x00000000       0x1c .\libraries\SPI\SPI.cpp.o
 .text._ZN8SPIClass8transferEPvS0_j
                0x00000000       0x4a .\libraries\SPI\SPI.cpp.o
 .text._ZN8SPIClass15attachInterruptEv
                0x00000000        0x2 .\libraries\SPI\SPI.cpp.o
 .text._ZN8SPIClass15detachInterruptEv
                0x00000000        0x2 .\libraries\SPI\SPI.cpp.o
 .text._ZN8SPIClass15getDataRegisterEv
                0x00000000       0x20 .\libraries\SPI\SPI.cpp.o
 .text._ZN8SPIClass13getDMAC_ID_TXEv
                0x00000000       0x24 .\libraries\SPI\SPI.cpp.o
 .text._ZN8SPIClass13getDMAC_ID_RXEv
                0x00000000       0x24 .\libraries\SPI\SPI.cpp.o
 .text._ZN8SPIClass8transferEPvS0_mPFvvE
                0x00000000      0x150 .\libraries\SPI\SPI.cpp.o
 .text._ZN8SPIClass16checkDmaCompleteEh
                0x00000000       0x48 .\libraries\SPI\SPI.cpp.o
 .text._ZN8SPIClass16dmaCallback_readEP16Adafruit_ZeroDMA
                0x00000000       0x18 .\libraries\SPI\SPI.cpp.o
 .text._ZN8SPIClass17dmaCallback_writeEP16Adafruit_ZeroDMA
                0x00000000       0x18 .\libraries\SPI\SPI.cpp.o
 .text._ZN8SPIClass14setClockSourceE17SercomClockSource
                0x00000000       0x2a .\libraries\SPI\SPI.cpp.o
 .bss._ZL6spiPtr
                0x00000000       0x80 .\libraries\SPI\SPI.cpp.o
 .rodata._ZL10sercomData
                0x00000000       0x48 .\libraries\SPI\SPI.cpp.o
 .text          0x00000000        0x0 .\libraries\Adafruit_ZeroDMA\Adafruit_ZeroDMA.cpp.o
 .data          0x00000000        0x0 .\libraries\Adafruit_ZeroDMA\Adafruit_ZeroDMA.cpp.o
 .bss           0x00000000        0x0 .\libraries\Adafruit_ZeroDMA\Adafruit_ZeroDMA.cpp.o
 .text._ZN16Adafruit_ZeroDMA8allocateEv
                0x00000000      0x174 .\libraries\Adafruit_ZeroDMA\Adafruit_ZeroDMA.cpp.o
 .text._ZNK16Adafruit_ZeroDMA11setPriorityE12dma_priority
                0x00000000       0x18 .\libraries\Adafruit_ZeroDMA\Adafruit_ZeroDMA.cpp.o
 .text._ZN16Adafruit_ZeroDMA4freeEv
                0x00000000       0x7c .\libraries\Adafruit_ZeroDMA\Adafruit_ZeroDMA.cpp.o
 .text._ZN16Adafruit_ZeroDMA8startJobEv
                0x00000000       0x84 .\libraries\Adafruit_ZeroDMA\Adafruit_ZeroDMA.cpp.o
 .text._ZN16Adafruit_ZeroDMA11setCallbackEPFvPS_E17dma_callback_type
                0x00000000        0x8 .\libraries\Adafruit_ZeroDMA\Adafruit_ZeroDMA.cpp.o
 .text._ZNK16Adafruit_ZeroDMA7suspendEv
                0x00000000       0x28 .\libraries\Adafruit_ZeroDMA\Adafruit_ZeroDMA.cpp.o
 .text._ZN16Adafruit_ZeroDMA6resumeEv
                0x00000000       0x50 .\libraries\Adafruit_ZeroDMA\Adafruit_ZeroDMA.cpp.o
 .text._ZN16Adafruit_ZeroDMA5abortEv
                0x00000000       0x2c .\libraries\Adafruit_ZeroDMA\Adafruit_ZeroDMA.cpp.o
 .text._ZN16Adafruit_ZeroDMA10setTriggerEh
                0x00000000       0x30 .\libraries\Adafruit_ZeroDMA\Adafruit_ZeroDMA.cpp.o
 .text._ZN16Adafruit_ZeroDMA9setActionE27dma_transfer_trigger_action
                0x00000000       0x30 .\libraries\Adafruit_ZeroDMA\Adafruit_ZeroDMA.cpp.o
 .text._ZNK16Adafruit_ZeroDMA7triggerEv
                0x00000000       0x1c .\libraries\Adafruit_ZeroDMA\Adafruit_ZeroDMA.cpp.o
 .text._ZNK16Adafruit_ZeroDMA8isActiveEv
                0x00000000       0x18 .\libraries\Adafruit_ZeroDMA\Adafruit_ZeroDMA.cpp.o
 .text._ZN16Adafruit_ZeroDMA13addDescriptorEPvS0_t13dma_beat_sizebbmb
                0x00000000      0x108 .\libraries\Adafruit_ZeroDMA\Adafruit_ZeroDMA.cpp.o
 .text._ZN16Adafruit_ZeroDMA16changeDescriptorEP14DmacDescriptorPvS2_t
                0x00000000       0x76 .\libraries\Adafruit_ZeroDMA\Adafruit_ZeroDMA.cpp.o
 .text._ZN16Adafruit_ZeroDMA4loopEb
                0x00000000       0x2c .\libraries\Adafruit_ZeroDMA\Adafruit_ZeroDMA.cpp.o
 .text._ZNK16Adafruit_ZeroDMA11printStatusE13ZeroDMAstatus
                0x00000000       0x9c .\libraries\Adafruit_ZeroDMA\Adafruit_ZeroDMA.cpp.o
 .rodata        0x00000000        0xa .\libraries\Adafruit_ZeroDMA\Adafruit_ZeroDMA.cpp.o
 .bss._ZL12_channelMask
                0x00000000        0x4 .\libraries\Adafruit_ZeroDMA\Adafruit_ZeroDMA.cpp.o
 .hsram         0x00000000      0x400 .\libraries\Adafruit_ZeroDMA\Adafruit_ZeroDMA.cpp.o
 .rodata._ZNK16Adafruit_ZeroDMA11printStatusE13ZeroDMAstatus.str1.1
                0x00000000       0x6a .\libraries\Adafruit_ZeroDMA\Adafruit_ZeroDMA.cpp.o
 .text          0x00000000        0x0 .\core\variant\variant.cpp.o
 .data          0x00000000        0x0 .\core\variant\variant.cpp.o
 .bss           0x00000000        0x0 .\core\variant\variant.cpp.o
 .data.g_apTCInstances
                0x00000000       0x2c .\core\variant\variant.cpp.o
 .rodata.GCLK_CLKCTRL_IDs
                0x00000000       0x2c .\core\variant\variant.cpp.o
 .text          0x00000000        0x0 C:/sloeber-workspace/Samd51_DmaTest/Release/arduino.ar(CDC.cpp.o)
 .data          0x00000000        0x0 C:/sloeber-workspace/Samd51_DmaTest/Release/arduino.ar(CDC.cpp.o)
 .bss           0x00000000        0x0 C:/sloeber-workspace/Samd51_DmaTest/Release/arduino.ar(CDC.cpp.o)
 .text._Z17_CDC_GetInterfacev
                0x00000000        0x8 C:/sloeber-workspace/Samd51_DmaTest/Release/arduino.ar(CDC.cpp.o)
 .text._Z23_CDC_GetInterfaceLengthv
                0x00000000        0x4 C:/sloeber-workspace/Samd51_DmaTest/Release/arduino.ar(CDC.cpp.o)
 .text._ZN7Serial_5beginEmh
                0x00000000        0x2 C:/sloeber-workspace/Samd51_DmaTest/Release/arduino.ar(CDC.cpp.o)
 .text._ZN7Serial_3endEv
                0x00000000       0x10 C:/sloeber-workspace/Samd51_DmaTest/Release/arduino.ar(CDC.cpp.o)
 .text._ZN7Serial_9readBytesEPcj
                0x00000000       0x40 C:/sloeber-workspace/Samd51_DmaTest/Release/arduino.ar(CDC.cpp.o)
 .text._ZN7Serial_cvbEv
                0x00000000       0x28 C:/sloeber-workspace/Samd51_DmaTest/Release/arduino.ar(CDC.cpp.o)
 .group         0x00000000        0x8 C:/sloeber-workspace/Samd51_DmaTest/Release/arduino.ar(USBCore.cpp.o)
 .group         0x00000000       0x14 C:/sloeber-workspace/Samd51_DmaTest/Release/arduino.ar(USBCore.cpp.o)
 .group         0x00000000        0x8 C:/sloeber-workspace/Samd51_DmaTest/Release/arduino.ar(USBCore.cpp.o)
 .group         0x00000000        0x8 C:/sloeber-workspace/Samd51_DmaTest/Release/arduino.ar(USBCore.cpp.o)
 .group         0x00000000        0xc C:/sloeber-workspace/Samd51_DmaTest/Release/arduino.ar(USBCore.cpp.o)
 .group         0x00000000        0x8 C:/sloeber-workspace/Samd51_DmaTest/Release/arduino.ar(USBCore.cpp.o)
 .group         0x00000000        0xc C:/sloeber-workspace/Samd51_DmaTest/Release/arduino.ar(USBCore.cpp.o)
 .group         0x00000000        0xc C:/sloeber-workspace/Samd51_DmaTest/Release/arduino.ar(USBCore.cpp.o)
 .group         0x00000000        0xc C:/sloeber-workspace/Samd51_DmaTest/Release/arduino.ar(USBCore.cpp.o)
 .text          0x00000000        0x0 C:/sloeber-workspace/Samd51_DmaTest/Release/arduino.ar(USBCore.cpp.o)
 .data          0x00000000        0x0 C:/sloeber-workspace/Samd51_DmaTest/Release/arduino.ar(USBCore.cpp.o)
 .bss           0x00000000        0x0 C:/sloeber-workspace/Samd51_DmaTest/Release/arduino.ar(USBCore.cpp.o)
 .text._ZN14USBDeviceClass7standbyEv
                0x00000000       0x14 C:/sloeber-workspace/Samd51_DmaTest/Release/arduino.ar(USBCore.cpp.o)
 .text._ZN14USBDeviceClass6detachEv
                0x00000000       0x18 C:/sloeber-workspace/Samd51_DmaTest/Release/arduino.ar(USBCore.cpp.o)
 .text._ZN14USBDeviceClass3endEv
                0x00000000       0x20 C:/sloeber-workspace/Samd51_DmaTest/Release/arduino.ar(USBCore.cpp.o)
 .text._ZN14USBDeviceClass10configuredEv
                0x00000000       0x10 C:/sloeber-workspace/Samd51_DmaTest/Release/arduino.ar(USBCore.cpp.o)
 .text._ZN14USBDeviceClass10setHandlerEmP9EPHandler
                0x00000000        0xc C:/sloeber-workspace/Samd51_DmaTest/Release/arduino.ar(USBCore.cpp.o)
 .text._ZN14USBDeviceClass5stallEm
                0x00000000        0xe C:/sloeber-workspace/Samd51_DmaTest/Release/arduino.ar(USBCore.cpp.o)
 .text._ZN14USBDeviceClass9connectedEv
                0x00000000       0x18 C:/sloeber-workspace/Samd51_DmaTest/Release/arduino.ar(USBCore.cpp.o)
 .text._ZN14USBDeviceClass12packMessagesEb
                0x00000000       0x28 C:/sloeber-workspace/Samd51_DmaTest/Release/arduino.ar(USBCore.cpp.o)
 .text._ZN14USBDeviceClass7sendZlpEm
                0x00000000       0x18 C:/sloeber-workspace/Samd51_DmaTest/Release/arduino.ar(USBCore.cpp.o)
 .group         0x00000000        0x8 C:/sloeber-workspace/Samd51_DmaTest/Release/arduino.ar(Print.cpp.o)
 .group         0x00000000        0x8 C:/sloeber-workspace/Samd51_DmaTest/Release/arduino.ar(Print.cpp.o)
 .group         0x00000000        0xc C:/sloeber-workspace/Samd51_DmaTest/Release/arduino.ar(Print.cpp.o)
 .text          0x00000000        0x0 C:/sloeber-workspace/Samd51_DmaTest/Release/arduino.ar(Print.cpp.o)
 .data          0x00000000        0x0 C:/sloeber-workspace/Samd51_DmaTest/Release/arduino.ar(Print.cpp.o)
 .bss           0x00000000        0x0 C:/sloeber-workspace/Samd51_DmaTest/Release/arduino.ar(Print.cpp.o)
 .text._ZN5Print17availableForWriteEv
                0x00000000        0x4 C:/sloeber-workspace/Samd51_DmaTest/Release/arduino.ar(Print.cpp.o)
 .text._ZN5Print5flushEv
                0x00000000        0x2 C:/sloeber-workspace/Samd51_DmaTest/Release/arduino.ar(Print.cpp.o)
 .text._ZN5Print5printEPK19__FlashStringHelper
                0x00000000        0x8 C:/sloeber-workspace/Samd51_DmaTest/Release/arduino.ar(Print.cpp.o)
 .text._ZN5Print5printERK6String
                0x00000000        0xa C:/sloeber-workspace/Samd51_DmaTest/Release/arduino.ar(Print.cpp.o)
 .text._ZN5Print5printEPKc
                0x00000000        0x8 C:/sloeber-workspace/Samd51_DmaTest/Release/arduino.ar(Print.cpp.o)
 .text._ZN5Print5printEc
                0x00000000        0x6 C:/sloeber-workspace/Samd51_DmaTest/Release/arduino.ar(Print.cpp.o)
 .text._ZN5Print5printERK9Printable
                0x00000000        0xc C:/sloeber-workspace/Samd51_DmaTest/Release/arduino.ar(Print.cpp.o)
 .text._ZN5Print7printlnEPK19__FlashStringHelper
                0x00000000       0x14 C:/sloeber-workspace/Samd51_DmaTest/Release/arduino.ar(Print.cpp.o)
 .text._ZN5Print7printlnERK6String
                0x00000000       0x14 C:/sloeber-workspace/Samd51_DmaTest/Release/arduino.ar(Print.cpp.o)
 .text._ZN5Print7printlnEc
                0x00000000       0x14 C:/sloeber-workspace/Samd51_DmaTest/Release/arduino.ar(Print.cpp.o)
 .text._ZN5Print7printlnERK9Printable
                0x00000000       0x14 C:/sloeber-workspace/Samd51_DmaTest/Release/arduino.ar(Print.cpp.o)
 .text._ZN5Print6printfEPKcz
                0x00000000       0x2a C:/sloeber-workspace/Samd51_DmaTest/Release/arduino.ar(Print.cpp.o)
 .text._ZN5Print11printNumberEmh
                0x00000000       0x3a C:/sloeber-workspace/Samd51_DmaTest/Release/arduino.ar(Print.cpp.o)
 .text._ZN5Print5printEli
                0x00000000       0x44 C:/sloeber-workspace/Samd51_DmaTest/Release/arduino.ar(Print.cpp.o)
 .text._ZN5Print5printEii
                0x00000000        0x4 C:/sloeber-workspace/Samd51_DmaTest/Release/arduino.ar(Print.cpp.o)
 .text._ZN5Print7printlnEii
                0x00000000       0x14 C:/sloeber-workspace/Samd51_DmaTest/Release/arduino.ar(Print.cpp.o)
 .text._ZN5Print7printlnEli
                0x00000000       0x14 C:/sloeber-workspace/Samd51_DmaTest/Release/arduino.ar(Print.cpp.o)
 .text._ZN5Print5printEmi
                0x00000000       0x1a C:/sloeber-workspace/Samd51_DmaTest/Release/arduino.ar(Print.cpp.o)
 .text._ZN5Print5printEhi
                0x00000000        0x4 C:/sloeber-workspace/Samd51_DmaTest/Release/arduino.ar(Print.cpp.o)
 .text._ZN5Print7printlnEhi
                0x00000000       0x14 C:/sloeber-workspace/Samd51_DmaTest/Release/arduino.ar(Print.cpp.o)
 .text._ZN5Print5printEji
                0x00000000        0x4 C:/sloeber-workspace/Samd51_DmaTest/Release/arduino.ar(Print.cpp.o)
 .text._ZN5Print7printlnEji
                0x00000000       0x14 C:/sloeber-workspace/Samd51_DmaTest/Release/arduino.ar(Print.cpp.o)
 .text._ZN5Print7printlnEmi
                0x00000000       0x14 C:/sloeber-workspace/Samd51_DmaTest/Release/arduino.ar(Print.cpp.o)
 .text._ZN5Print10printFloatEdh
                0x00000000      0x174 C:/sloeber-workspace/Samd51_DmaTest/Release/arduino.ar(Print.cpp.o)
 .text._ZN5Print5printEdi
                0x00000000        0x6 C:/sloeber-workspace/Samd51_DmaTest/Release/arduino.ar(Print.cpp.o)
 .text._ZN5Print7printlnEdi
                0x00000000       0x16 C:/sloeber-workspace/Samd51_DmaTest/Release/arduino.ar(Print.cpp.o)
 .rodata._ZN5Print10printFloatEdh.str1.1
                0x00000000        0xe C:/sloeber-workspace/Samd51_DmaTest/Release/arduino.ar(Print.cpp.o)
 .rodata._ZTV5Print
                0x00000000       0x18 C:/sloeber-workspace/Samd51_DmaTest/Release/arduino.ar(Print.cpp.o)
 .text          0x00000000        0x0 C:/sloeber-workspace/Samd51_DmaTest/Release/arduino.ar(Reset.cpp.o)
 .data          0x00000000        0x0 C:/sloeber-workspace/Samd51_DmaTest/Release/arduino.ar(Reset.cpp.o)
 .bss           0x00000000        0x0 C:/sloeber-workspace/Samd51_DmaTest/Release/arduino.ar(Reset.cpp.o)
 .text          0x00000000        0x0 C:/sloeber-workspace/Samd51_DmaTest/Release/arduino.ar(SERCOM.cpp.o)
 .data          0x00000000        0x0 C:/sloeber-workspace/Samd51_DmaTest/Release/arduino.ar(SERCOM.cpp.o)
 .bss           0x00000000        0x0 C:/sloeber-workspace/Samd51_DmaTest/Release/arduino.ar(SERCOM.cpp.o)
 .text._ZN6SERCOM25isBufferOverflowErrorUARTEv
                0x00000000        0xa C:/sloeber-workspace/Samd51_DmaTest/Release/arduino.ar(SERCOM.cpp.o)
 .text._ZN6SERCOM17isParityErrorUARTEv
                0x00000000        0xa C:/sloeber-workspace/Samd51_DmaTest/Release/arduino.ar(SERCOM.cpp.o)
 .text._ZN6SERCOM15setDataOrderSPIE15SercomDataOrder
                0x00000000       0x1a C:/sloeber-workspace/Samd51_DmaTest/Release/arduino.ar(SERCOM.cpp.o)
 .text._ZN6SERCOM15getDataOrderSPIEv
                0x00000000        0xa C:/sloeber-workspace/Samd51_DmaTest/Release/arduino.ar(SERCOM.cpp.o)
 .text._ZN6SERCOM15setClockModeSPIE18SercomSpiClockMode
                0x00000000       0x2a C:/sloeber-workspace/Samd51_DmaTest/Release/arduino.ar(SERCOM.cpp.o)
 .text._ZN6SERCOM15transferDataSPIEh
                0x00000000       0x12 C:/sloeber-workspace/Samd51_DmaTest/Release/arduino.ar(SERCOM.cpp.o)
 .text._ZN6SERCOM24isBufferOverflowErrorSPIEv
                0x00000000        0xa C:/sloeber-workspace/Samd51_DmaTest/Release/arduino.ar(SERCOM.cpp.o)
 .text._ZN6SERCOM22isDataRegisterEmptySPIEv
                0x00000000        0xa C:/sloeber-workspace/Samd51_DmaTest/Release/arduino.ar(SERCOM.cpp.o)
 .text._ZN6SERCOM14setBaudrateSPIEh
                0x00000000       0x22 C:/sloeber-workspace/Samd51_DmaTest/Release/arduino.ar(SERCOM.cpp.o)
 .text._ZN6SERCOM9resetWIREEv
                0x00000000       0x1a C:/sloeber-workspace/Samd51_DmaTest/Release/arduino.ar(SERCOM.cpp.o)
 .text._ZN6SERCOM10enableWIREEv
                0x00000000       0x26 C:/sloeber-workspace/Samd51_DmaTest/Release/arduino.ar(SERCOM.cpp.o)
 .text._ZN6SERCOM11disableWIREEv
                0x00000000       0x14 C:/sloeber-workspace/Samd51_DmaTest/Release/arduino.ar(SERCOM.cpp.o)
 .text._ZN6SERCOM18prepareNackBitWIREEv
                0x00000000        0xe C:/sloeber-workspace/Samd51_DmaTest/Release/arduino.ar(SERCOM.cpp.o)
 .text._ZN6SERCOM17prepareAckBitWIREEv
                0x00000000        0xe C:/sloeber-workspace/Samd51_DmaTest/Release/arduino.ar(SERCOM.cpp.o)
 .text._ZN6SERCOM22prepareCommandBitsWireEh
                0x00000000       0x24 C:/sloeber-workspace/Samd51_DmaTest/Release/arduino.ar(SERCOM.cpp.o)
 .text._ZN6SERCOM21startTransmissionWIREEh23SercomWireReadWriteFlag
                0x00000000       0x56 C:/sloeber-workspace/Samd51_DmaTest/Release/arduino.ar(SERCOM.cpp.o)
 .text._ZN6SERCOM18sendDataMasterWIREEh
                0x00000000       0x22 C:/sloeber-workspace/Samd51_DmaTest/Release/arduino.ar(SERCOM.cpp.o)
 .text._ZN6SERCOM17sendDataSlaveWIREEh
                0x00000000       0x1a C:/sloeber-workspace/Samd51_DmaTest/Release/arduino.ar(SERCOM.cpp.o)
 .text._ZN6SERCOM12isMasterWIREEv
                0x00000000       0x10 C:/sloeber-workspace/Samd51_DmaTest/Release/arduino.ar(SERCOM.cpp.o)
 .text._ZN6SERCOM11isSlaveWIREEv
                0x00000000       0x10 C:/sloeber-workspace/Samd51_DmaTest/Release/arduino.ar(SERCOM.cpp.o)
 .text._ZN6SERCOM13isBusIdleWIREEv
                0x00000000       0x10 C:/sloeber-workspace/Samd51_DmaTest/Release/arduino.ar(SERCOM.cpp.o)
 .text._ZN6SERCOM14isBusOwnerWIREEv
                0x00000000       0x10 C:/sloeber-workspace/Samd51_DmaTest/Release/arduino.ar(SERCOM.cpp.o)
 .text._ZN6SERCOM15isDataReadyWIREEv
                0x00000000        0xa C:/sloeber-workspace/Samd51_DmaTest/Release/arduino.ar(SERCOM.cpp.o)
 .text._ZN6SERCOM18isStopDetectedWIREEv
                0x00000000        0xa C:/sloeber-workspace/Samd51_DmaTest/Release/arduino.ar(SERCOM.cpp.o)
 .text._ZN6SERCOM21isRestartDetectedWIREEv
                0x00000000        0xa C:/sloeber-workspace/Samd51_DmaTest/Release/arduino.ar(SERCOM.cpp.o)
 .text._ZN6SERCOM14isAddressMatchEv
                0x00000000        0xa C:/sloeber-workspace/Samd51_DmaTest/Release/arduino.ar(SERCOM.cpp.o)
 .text._ZN6SERCOM25isMasterReadOperationWIREEv
                0x00000000        0xa C:/sloeber-workspace/Samd51_DmaTest/Release/arduino.ar(SERCOM.cpp.o)
 .text._ZN6SERCOM20isRXNackReceivedWIREEv
                0x00000000        0xa C:/sloeber-workspace/Samd51_DmaTest/Release/arduino.ar(SERCOM.cpp.o)
 .text._ZN6SERCOM13availableWIREEv
                0x00000000       0x18 C:/sloeber-workspace/Samd51_DmaTest/Release/arduino.ar(SERCOM.cpp.o)
 .text._ZN6SERCOM12readDataWIREEv
                0x00000000       0x18 C:/sloeber-workspace/Samd51_DmaTest/Release/arduino.ar(SERCOM.cpp.o)
 .text._ZN6SERCOM13initSlaveWIREEhb
                0x00000000       0x42 C:/sloeber-workspace/Samd51_DmaTest/Release/arduino.ar(SERCOM.cpp.o)
 .text._ZN6SERCOM14initMasterWIREEm
                0x00000000       0x34 C:/sloeber-workspace/Samd51_DmaTest/Release/arduino.ar(SERCOM.cpp.o)
 .group         0x00000000        0x8 C:/sloeber-workspace/Samd51_DmaTest/Release/arduino.ar(Uart.cpp.o)
 .group         0x00000000        0xc C:/sloeber-workspace/Samd51_DmaTest/Release/arduino.ar(Uart.cpp.o)
 .group         0x00000000        0x8 C:/sloeber-workspace/Samd51_DmaTest/Release/arduino.ar(Uart.cpp.o)
 .group         0x00000000        0x8 C:/sloeber-workspace/Samd51_DmaTest/Release/arduino.ar(Uart.cpp.o)
 .text          0x00000000        0x0 C:/sloeber-workspace/Samd51_DmaTest/Release/arduino.ar(Uart.cpp.o)
 .data          0x00000000        0x0 C:/sloeber-workspace/Samd51_DmaTest/Release/arduino.ar(Uart.cpp.o)
 .bss           0x00000000        0x0 C:/sloeber-workspace/Samd51_DmaTest/Release/arduino.ar(Uart.cpp.o)
 .text._ZN4UartC2EP6SERCOMhh11SercomRXPad15SercomUartTXPadhh
                0x00000000       0x58 C:/sloeber-workspace/Samd51_DmaTest/Release/arduino.ar(Uart.cpp.o)
 .text          0x00000000        0x0 C:/sloeber-workspace/Samd51_DmaTest/Release/arduino.ar(abi.cpp.o)
 .data          0x00000000        0x0 C:/sloeber-workspace/Samd51_DmaTest/Release/arduino.ar(abi.cpp.o)
 .bss           0x00000000        0x0 C:/sloeber-workspace/Samd51_DmaTest/Release/arduino.ar(abi.cpp.o)
 .text.__cxa_pure_virtual
                0x00000000        0x2 C:/sloeber-workspace/Samd51_DmaTest/Release/arduino.ar(abi.cpp.o)
 .text.__cxa_deleted_virtual
                0x00000000        0x2 C:/sloeber-workspace/Samd51_DmaTest/Release/arduino.ar(abi.cpp.o)
 .debug_info    0x00000000      0xe6d C:/sloeber-workspace/Samd51_DmaTest/Release/arduino.ar(abi.cpp.o)
 .debug_abbrev  0x00000000      0x26f C:/sloeber-workspace/Samd51_DmaTest/Release/arduino.ar(abi.cpp.o)
 .debug_aranges
                0x00000000       0x28 C:/sloeber-workspace/Samd51_DmaTest/Release/arduino.ar(abi.cpp.o)
 .debug_ranges  0x00000000       0x18 C:/sloeber-workspace/Samd51_DmaTest/Release/arduino.ar(abi.cpp.o)
 .debug_line    0x00000000      0x338 C:/sloeber-workspace/Samd51_DmaTest/Release/arduino.ar(abi.cpp.o)
 .debug_str     0x00000000      0x7ad C:/sloeber-workspace/Samd51_DmaTest/Release/arduino.ar(abi.cpp.o)
 .comment       0x00000000       0x7f C:/sloeber-workspace/Samd51_DmaTest/Release/arduino.ar(abi.cpp.o)
 .debug_frame   0x00000000       0x30 C:/sloeber-workspace/Samd51_DmaTest/Release/arduino.ar(abi.cpp.o)
 .ARM.attributes
                0x00000000       0x39 C:/sloeber-workspace/Samd51_DmaTest/Release/arduino.ar(abi.cpp.o)
 .text          0x00000000        0x0 C:/sloeber-workspace/Samd51_DmaTest/Release/arduino.ar(cortex_handlers.c.o)
 .data          0x00000000        0x0 C:/sloeber-workspace/Samd51_DmaTest/Release/arduino.ar(cortex_handlers.c.o)
 .bss           0x00000000        0x0 C:/sloeber-workspace/Samd51_DmaTest/Release/arduino.ar(cortex_handlers.c.o)
 .text          0x00000000        0x0 C:/sloeber-workspace/Samd51_DmaTest/Release/arduino.ar(delay.c.o)
 .data          0x00000000        0x0 C:/sloeber-workspace/Samd51_DmaTest/Release/arduino.ar(delay.c.o)
 .bss           0x00000000        0x0 C:/sloeber-workspace/Samd51_DmaTest/Release/arduino.ar(delay.c.o)
 .text.millis   0x00000000        0xc C:/sloeber-workspace/Samd51_DmaTest/Release/arduino.ar(delay.c.o)
 .text.delayMicroseconds
                0x00000000       0x1c C:/sloeber-workspace/Samd51_DmaTest/Release/arduino.ar(delay.c.o)
 .text          0x00000000        0x0 C:/sloeber-workspace/Samd51_DmaTest/Release/arduino.ar(hooks.c.o)
 .data          0x00000000        0x0 C:/sloeber-workspace/Samd51_DmaTest/Release/arduino.ar(hooks.c.o)
 .bss           0x00000000        0x0 C:/sloeber-workspace/Samd51_DmaTest/Release/arduino.ar(hooks.c.o)
 .text.__halt   0x00000000        0x2 C:/sloeber-workspace/Samd51_DmaTest/Release/arduino.ar(hooks.c.o)
 .text          0x00000000        0x0 C:/sloeber-workspace/Samd51_DmaTest/Release/arduino.ar(main.cpp.o)
 .data          0x00000000        0x0 C:/sloeber-workspace/Samd51_DmaTest/Release/arduino.ar(main.cpp.o)
 .bss           0x00000000        0x0 C:/sloeber-workspace/Samd51_DmaTest/Release/arduino.ar(main.cpp.o)
 .text          0x00000000        0x0 C:/sloeber-workspace/Samd51_DmaTest/Release/arduino.ar(new.cpp.o)
 .data          0x00000000        0x0 C:/sloeber-workspace/Samd51_DmaTest/Release/arduino.ar(new.cpp.o)
 .bss           0x00000000        0x0 C:/sloeber-workspace/Samd51_DmaTest/Release/arduino.ar(new.cpp.o)
 .text._Znaj    0x00000000        0x4 C:/sloeber-workspace/Samd51_DmaTest/Release/arduino.ar(new.cpp.o)
 .text._ZdaPv   0x00000000        0x4 C:/sloeber-workspace/Samd51_DmaTest/Release/arduino.ar(new.cpp.o)
 .text          0x00000000        0x0 C:/sloeber-workspace/Samd51_DmaTest/Release/arduino.ar(startup.c.o)
 .data          0x00000000        0x0 C:/sloeber-workspace/Samd51_DmaTest/Release/arduino.ar(startup.c.o)
 .bss           0x00000000        0x0 C:/sloeber-workspace/Samd51_DmaTest/Release/arduino.ar(startup.c.o)
 .text          0x00000000        0x0 C:/sloeber-workspace/Samd51_DmaTest/Release/arduino.ar(wiring.c.o)
 .data          0x00000000        0x0 C:/sloeber-workspace/Samd51_DmaTest/Release/arduino.ar(wiring.c.o)
 .bss           0x00000000        0x0 C:/sloeber-workspace/Samd51_DmaTest/Release/arduino.ar(wiring.c.o)
 .text          0x00000000        0x0 C:/sloeber-workspace/Samd51_DmaTest/Release/arduino.ar(wiring_analog.c.o)
 .data          0x00000000        0x0 C:/sloeber-workspace/Samd51_DmaTest/Release/arduino.ar(wiring_analog.c.o)
 .bss           0x00000000        0x0 C:/sloeber-workspace/Samd51_DmaTest/Release/arduino.ar(wiring_analog.c.o)
 .text.analogReadResolution
                0x00000000       0x74 C:/sloeber-workspace/Samd51_DmaTest/Release/arduino.ar(wiring_analog.c.o)
 .text.analogWriteResolution
                0x00000000        0xc C:/sloeber-workspace/Samd51_DmaTest/Release/arduino.ar(wiring_analog.c.o)
 .text.analogRead
                0x00000000      0x14c C:/sloeber-workspace/Samd51_DmaTest/Release/arduino.ar(wiring_analog.c.o)
 .text.analogWrite
                0x00000000      0x2a8 C:/sloeber-workspace/Samd51_DmaTest/Release/arduino.ar(wiring_analog.c.o)
 .bss.dacEnabled
                0x00000000        0x2 C:/sloeber-workspace/Samd51_DmaTest/Release/arduino.ar(wiring_analog.c.o)
 .bss.tcEnabled.19159
                0x00000000        0xb C:/sloeber-workspace/Samd51_DmaTest/Release/arduino.ar(wiring_analog.c.o)
 .data._ADCResolution
                0x00000000        0x4 C:/sloeber-workspace/Samd51_DmaTest/Release/arduino.ar(wiring_analog.c.o)
 .data._readResolution
                0x00000000        0x4 C:/sloeber-workspace/Samd51_DmaTest/Release/arduino.ar(wiring_analog.c.o)
 .data._writeResolution
                0x00000000        0x4 C:/sloeber-workspace/Samd51_DmaTest/Release/arduino.ar(wiring_analog.c.o)
 .text          0x00000000        0x0 C:/sloeber-workspace/Samd51_DmaTest/Release/arduino.ar(wiring_digital.c.o)
 .data          0x00000000        0x0 C:/sloeber-workspace/Samd51_DmaTest/Release/arduino.ar(wiring_digital.c.o)
 .bss           0x00000000        0x0 C:/sloeber-workspace/Samd51_DmaTest/Release/arduino.ar(wiring_digital.c.o)
 .text.digitalRead
                0x00000000       0x30 C:/sloeber-workspace/Samd51_DmaTest/Release/arduino.ar(wiring_digital.c.o)
 .text          0x00000000        0x0 C:/sloeber-workspace/Samd51_DmaTest/Release/arduino.ar(wiring_private.c.o)
 .data          0x00000000        0x0 C:/sloeber-workspace/Samd51_DmaTest/Release/arduino.ar(wiring_private.c.o)
 .bss           0x00000000        0x0 C:/sloeber-workspace/Samd51_DmaTest/Release/arduino.ar(wiring_private.c.o)
 .text          0x00000000        0x0 C:/sloeber-workspace/Samd51_DmaTest/Release/arduino.ar(PluggableUSB.cpp.o)
 .data          0x00000000        0x0 C:/sloeber-workspace/Samd51_DmaTest/Release/arduino.ar(PluggableUSB.cpp.o)
 .bss           0x00000000        0x0 C:/sloeber-workspace/Samd51_DmaTest/Release/arduino.ar(PluggableUSB.cpp.o)
 .text._ZN13PluggableUSB_12getShortNameEPc
                0x00000000       0x1c C:/sloeber-workspace/Samd51_DmaTest/Release/arduino.ar(PluggableUSB.cpp.o)
 .text._ZN13PluggableUSB_4plugEP18PluggableUSBModule
                0x00000000       0x54 C:/sloeber-workspace/Samd51_DmaTest/Release/arduino.ar(PluggableUSB.cpp.o)
 .text._ZN13PluggableUSB_C2Ev
                0x00000000        0xc C:/sloeber-workspace/Samd51_DmaTest/Release/arduino.ar(PluggableUSB.cpp.o)
 .text          0x00000000        0x0 C:/sloeber-workspace/Samd51_DmaTest/Release/arduino.ar(SAMD21_USBDevice.cpp.o)
 .data          0x00000000        0x0 C:/sloeber-workspace/Samd51_DmaTest/Release/arduino.ar(SAMD21_USBDevice.cpp.o)
 .bss           0x00000000        0x0 C:/sloeber-workspace/Samd51_DmaTest/Release/arduino.ar(SAMD21_USBDevice.cpp.o)
 .text          0x00000000        0x0 c:/sloeber/arduinoplugin/packages/arduino/tools/arm-none-eabi-gcc/7-2017q4/bin/../lib/gcc/arm-none-eabi/7.2.1/../../../../arm-none-eabi/lib/thumb/v7e-m/fpv4-sp/hard\libm.a(lib_a-w_pow.o)
 .data          0x00000000        0x0 c:/sloeber/arduinoplugin/packages/arduino/tools/arm-none-eabi-gcc/7-2017q4/bin/../lib/gcc/arm-none-eabi/7.2.1/../../../../arm-none-eabi/lib/thumb/v7e-m/fpv4-sp/hard\libm.a(lib_a-w_pow.o)
 .bss           0x00000000        0x0 c:/sloeber/arduinoplugin/packages/arduino/tools/arm-none-eabi-gcc/7-2017q4/bin/../lib/gcc/arm-none-eabi/7.2.1/../../../../arm-none-eabi/lib/thumb/v7e-m/fpv4-sp/hard\libm.a(lib_a-w_pow.o)
 .text.pow      0x00000000      0x338 c:/sloeber/arduinoplugin/packages/arduino/tools/arm-none-eabi-gcc/7-2017q4/bin/../lib/gcc/arm-none-eabi/7.2.1/../../../../arm-none-eabi/lib/thumb/v7e-m/fpv4-sp/hard\libm.a(lib_a-w_pow.o)
 .rodata.pow.str1.4
                0x00000000        0x4 c:/sloeber/arduinoplugin/packages/arduino/tools/arm-none-eabi-gcc/7-2017q4/bin/../lib/gcc/arm-none-eabi/7.2.1/../../../../arm-none-eabi/lib/thumb/v7e-m/fpv4-sp/hard\libm.a(lib_a-w_pow.o)
 .debug_frame   0x00000000       0x50 c:/sloeber/arduinoplugin/packages/arduino/tools/arm-none-eabi-gcc/7-2017q4/bin/../lib/gcc/arm-none-eabi/7.2.1/../../../../arm-none-eabi/lib/thumb/v7e-m/fpv4-sp/hard\libm.a(lib_a-w_pow.o)
 .ARM.attributes
                0x00000000       0x34 c:/sloeber/arduinoplugin/packages/arduino/tools/arm-none-eabi-gcc/7-2017q4/bin/../lib/gcc/arm-none-eabi/7.2.1/../../../../arm-none-eabi/lib/thumb/v7e-m/fpv4-sp/hard\libm.a(lib_a-w_pow.o)
 .text          0x00000000        0x0 c:/sloeber/arduinoplugin/packages/arduino/tools/arm-none-eabi-gcc/7-2017q4/bin/../lib/gcc/arm-none-eabi/7.2.1/../../../../arm-none-eabi/lib/thumb/v7e-m/fpv4-sp/hard\libm.a(lib_a-e_pow.o)
 .data          0x00000000        0x0 c:/sloeber/arduinoplugin/packages/arduino/tools/arm-none-eabi-gcc/7-2017q4/bin/../lib/gcc/arm-none-eabi/7.2.1/../../../../arm-none-eabi/lib/thumb/v7e-m/fpv4-sp/hard\libm.a(lib_a-e_pow.o)
 .bss           0x00000000        0x0 c:/sloeber/arduinoplugin/packages/arduino/tools/arm-none-eabi-gcc/7-2017q4/bin/../lib/gcc/arm-none-eabi/7.2.1/../../../../arm-none-eabi/lib/thumb/v7e-m/fpv4-sp/hard\libm.a(lib_a-e_pow.o)
 .text.__ieee754_pow
                0x00000000      0xab8 c:/sloeber/arduinoplugin/packages/arduino/tools/arm-none-eabi-gcc/7-2017q4/bin/../lib/gcc/arm-none-eabi/7.2.1/../../../../arm-none-eabi/lib/thumb/v7e-m/fpv4-sp/hard\libm.a(lib_a-e_pow.o)
 .rodata.__ieee754_pow.str1.4
                0x00000000        0x1 c:/sloeber/arduinoplugin/packages/arduino/tools/arm-none-eabi-gcc/7-2017q4/bin/../lib/gcc/arm-none-eabi/7.2.1/../../../../arm-none-eabi/lib/thumb/v7e-m/fpv4-sp/hard\libm.a(lib_a-e_pow.o)
 .debug_frame   0x00000000       0x68 c:/sloeber/arduinoplugin/packages/arduino/tools/arm-none-eabi-gcc/7-2017q4/bin/../lib/gcc/arm-none-eabi/7.2.1/../../../../arm-none-eabi/lib/thumb/v7e-m/fpv4-sp/hard\libm.a(lib_a-e_pow.o)
 .ARM.attributes
                0x00000000       0x34 c:/sloeber/arduinoplugin/packages/arduino/tools/arm-none-eabi-gcc/7-2017q4/bin/../lib/gcc/arm-none-eabi/7.2.1/../../../../arm-none-eabi/lib/thumb/v7e-m/fpv4-sp/hard\libm.a(lib_a-e_pow.o)
 .text          0x00000000        0x0 c:/sloeber/arduinoplugin/packages/arduino/tools/arm-none-eabi-gcc/7-2017q4/bin/../lib/gcc/arm-none-eabi/7.2.1/../../../../arm-none-eabi/lib/thumb/v7e-m/fpv4-sp/hard\libm.a(lib_a-e_sqrt.o)
 .data          0x00000000        0x0 c:/sloeber/arduinoplugin/packages/arduino/tools/arm-none-eabi-gcc/7-2017q4/bin/../lib/gcc/arm-none-eabi/7.2.1/../../../../arm-none-eabi/lib/thumb/v7e-m/fpv4-sp/hard\libm.a(lib_a-e_sqrt.o)
 .bss           0x00000000        0x0 c:/sloeber/arduinoplugin/packages/arduino/tools/arm-none-eabi-gcc/7-2017q4/bin/../lib/gcc/arm-none-eabi/7.2.1/../../../../arm-none-eabi/lib/thumb/v7e-m/fpv4-sp/hard\libm.a(lib_a-e_sqrt.o)
 .text.__ieee754_sqrt
                0x00000000      0x194 c:/sloeber/arduinoplugin/packages/arduino/tools/arm-none-eabi-gcc/7-2017q4/bin/../lib/gcc/arm-none-eabi/7.2.1/../../../../arm-none-eabi/lib/thumb/v7e-m/fpv4-sp/hard\libm.a(lib_a-e_sqrt.o)
 .debug_frame   0x00000000       0x30 c:/sloeber/arduinoplugin/packages/arduino/tools/arm-none-eabi-gcc/7-2017q4/bin/../lib/gcc/arm-none-eabi/7.2.1/../../../../arm-none-eabi/lib/thumb/v7e-m/fpv4-sp/hard\libm.a(lib_a-e_sqrt.o)
 .ARM.attributes
                0x00000000       0x34 c:/sloeber/arduinoplugin/packages/arduino/tools/arm-none-eabi-gcc/7-2017q4/bin/../lib/gcc/arm-none-eabi/7.2.1/../../../../arm-none-eabi/lib/thumb/v7e-m/fpv4-sp/hard\libm.a(lib_a-e_sqrt.o)
 .text          0x00000000        0x0 c:/sloeber/arduinoplugin/packages/arduino/tools/arm-none-eabi-gcc/7-2017q4/bin/../lib/gcc/arm-none-eabi/7.2.1/../../../../arm-none-eabi/lib/thumb/v7e-m/fpv4-sp/hard\libm.a(lib_a-s_fabs.o)
 .data          0x00000000        0x0 c:/sloeber/arduinoplugin/packages/arduino/tools/arm-none-eabi-gcc/7-2017q4/bin/../lib/gcc/arm-none-eabi/7.2.1/../../../../arm-none-eabi/lib/thumb/v7e-m/fpv4-sp/hard\libm.a(lib_a-s_fabs.o)
 .bss           0x00000000        0x0 c:/sloeber/arduinoplugin/packages/arduino/tools/arm-none-eabi-gcc/7-2017q4/bin/../lib/gcc/arm-none-eabi/7.2.1/../../../../arm-none-eabi/lib/thumb/v7e-m/fpv4-sp/hard\libm.a(lib_a-s_fabs.o)
 .text.fabs     0x00000000       0x14 c:/sloeber/arduinoplugin/packages/arduino/tools/arm-none-eabi-gcc/7-2017q4/bin/../lib/gcc/arm-none-eabi/7.2.1/../../../../arm-none-eabi/lib/thumb/v7e-m/fpv4-sp/hard\libm.a(lib_a-s_fabs.o)
 .debug_frame   0x00000000       0x20 c:/sloeber/arduinoplugin/packages/arduino/tools/arm-none-eabi-gcc/7-2017q4/bin/../lib/gcc/arm-none-eabi/7.2.1/../../../../arm-none-eabi/lib/thumb/v7e-m/fpv4-sp/hard\libm.a(lib_a-s_fabs.o)
 .ARM.attributes
                0x00000000       0x34 c:/sloeber/arduinoplugin/packages/arduino/tools/arm-none-eabi-gcc/7-2017q4/bin/../lib/gcc/arm-none-eabi/7.2.1/../../../../arm-none-eabi/lib/thumb/v7e-m/fpv4-sp/hard\libm.a(lib_a-s_fabs.o)
 .text          0x00000000        0x0 c:/sloeber/arduinoplugin/packages/arduino/tools/arm-none-eabi-gcc/7-2017q4/bin/../lib/gcc/arm-none-eabi/7.2.1/../../../../arm-none-eabi/lib/thumb/v7e-m/fpv4-sp/hard\libm.a(lib_a-s_finite.o)
 .data          0x00000000        0x0 c:/sloeber/arduinoplugin/packages/arduino/tools/arm-none-eabi-gcc/7-2017q4/bin/../lib/gcc/arm-none-eabi/7.2.1/../../../../arm-none-eabi/lib/thumb/v7e-m/fpv4-sp/hard\libm.a(lib_a-s_finite.o)
 .bss           0x00000000        0x0 c:/sloeber/arduinoplugin/packages/arduino/tools/arm-none-eabi-gcc/7-2017q4/bin/../lib/gcc/arm-none-eabi/7.2.1/../../../../arm-none-eabi/lib/thumb/v7e-m/fpv4-sp/hard\libm.a(lib_a-s_finite.o)
 .text.finite   0x00000000       0x10 c:/sloeber/arduinoplugin/packages/arduino/tools/arm-none-eabi-gcc/7-2017q4/bin/../lib/gcc/arm-none-eabi/7.2.1/../../../../arm-none-eabi/lib/thumb/v7e-m/fpv4-sp/hard\libm.a(lib_a-s_finite.o)
 .debug_frame   0x00000000       0x20 c:/sloeber/arduinoplugin/packages/arduino/tools/arm-none-eabi-gcc/7-2017q4/bin/../lib/gcc/arm-none-eabi/7.2.1/../../../../arm-none-eabi/lib/thumb/v7e-m/fpv4-sp/hard\libm.a(lib_a-s_finite.o)
 .ARM.attributes
                0x00000000       0x34 c:/sloeber/arduinoplugin/packages/arduino/tools/arm-none-eabi-gcc/7-2017q4/bin/../lib/gcc/arm-none-eabi/7.2.1/../../../../arm-none-eabi/lib/thumb/v7e-m/fpv4-sp/hard\libm.a(lib_a-s_finite.o)
 .text          0x00000000        0x0 c:/sloeber/arduinoplugin/packages/arduino/tools/arm-none-eabi-gcc/7-2017q4/bin/../lib/gcc/arm-none-eabi/7.2.1/../../../../arm-none-eabi/lib/thumb/v7e-m/fpv4-sp/hard\libm.a(lib_a-s_lib_ver.o)
 .data          0x00000000        0x0 c:/sloeber/arduinoplugin/packages/arduino/tools/arm-none-eabi-gcc/7-2017q4/bin/../lib/gcc/arm-none-eabi/7.2.1/../../../../arm-none-eabi/lib/thumb/v7e-m/fpv4-sp/hard\libm.a(lib_a-s_lib_ver.o)
 .bss           0x00000000        0x0 c:/sloeber/arduinoplugin/packages/arduino/tools/arm-none-eabi-gcc/7-2017q4/bin/../lib/gcc/arm-none-eabi/7.2.1/../../../../arm-none-eabi/lib/thumb/v7e-m/fpv4-sp/hard\libm.a(lib_a-s_lib_ver.o)
 .data.__fdlib_version
                0x00000000        0x1 c:/sloeber/arduinoplugin/packages/arduino/tools/arm-none-eabi-gcc/7-2017q4/bin/../lib/gcc/arm-none-eabi/7.2.1/../../../../arm-none-eabi/lib/thumb/v7e-m/fpv4-sp/hard\libm.a(lib_a-s_lib_ver.o)
 .ARM.attributes
                0x00000000       0x34 c:/sloeber/arduinoplugin/packages/arduino/tools/arm-none-eabi-gcc/7-2017q4/bin/../lib/gcc/arm-none-eabi/7.2.1/../../../../arm-none-eabi/lib/thumb/v7e-m/fpv4-sp/hard\libm.a(lib_a-s_lib_ver.o)
 .text          0x00000000        0x0 c:/sloeber/arduinoplugin/packages/arduino/tools/arm-none-eabi-gcc/7-2017q4/bin/../lib/gcc/arm-none-eabi/7.2.1/../../../../arm-none-eabi/lib/thumb/v7e-m/fpv4-sp/hard\libm.a(lib_a-s_matherr.o)
 .data          0x00000000        0x0 c:/sloeber/arduinoplugin/packages/arduino/tools/arm-none-eabi-gcc/7-2017q4/bin/../lib/gcc/arm-none-eabi/7.2.1/../../../../arm-none-eabi/lib/thumb/v7e-m/fpv4-sp/hard\libm.a(lib_a-s_matherr.o)
 .bss           0x00000000        0x0 c:/sloeber/arduinoplugin/packages/arduino/tools/arm-none-eabi-gcc/7-2017q4/bin/../lib/gcc/arm-none-eabi/7.2.1/../../../../arm-none-eabi/lib/thumb/v7e-m/fpv4-sp/hard\libm.a(lib_a-s_matherr.o)
 .text.matherr  0x00000000        0x4 c:/sloeber/arduinoplugin/packages/arduino/tools/arm-none-eabi-gcc/7-2017q4/bin/../lib/gcc/arm-none-eabi/7.2.1/../../../../arm-none-eabi/lib/thumb/v7e-m/fpv4-sp/hard\libm.a(lib_a-s_matherr.o)
 .debug_frame   0x00000000       0x20 c:/sloeber/arduinoplugin/packages/arduino/tools/arm-none-eabi-gcc/7-2017q4/bin/../lib/gcc/arm-none-eabi/7.2.1/../../../../arm-none-eabi/lib/thumb/v7e-m/fpv4-sp/hard\libm.a(lib_a-s_matherr.o)
 .ARM.attributes
                0x00000000       0x34 c:/sloeber/arduinoplugin/packages/arduino/tools/arm-none-eabi-gcc/7-2017q4/bin/../lib/gcc/arm-none-eabi/7.2.1/../../../../arm-none-eabi/lib/thumb/v7e-m/fpv4-sp/hard\libm.a(lib_a-s_matherr.o)
 .text          0x00000000        0x0 c:/sloeber/arduinoplugin/packages/arduino/tools/arm-none-eabi-gcc/7-2017q4/bin/../lib/gcc/arm-none-eabi/7.2.1/../../../../arm-none-eabi/lib/thumb/v7e-m/fpv4-sp/hard\libm.a(lib_a-s_nan.o)
 .data          0x00000000        0x0 c:/sloeber/arduinoplugin/packages/arduino/tools/arm-none-eabi-gcc/7-2017q4/bin/../lib/gcc/arm-none-eabi/7.2.1/../../../../arm-none-eabi/lib/thumb/v7e-m/fpv4-sp/hard\libm.a(lib_a-s_nan.o)
 .bss           0x00000000        0x0 c:/sloeber/arduinoplugin/packages/arduino/tools/arm-none-eabi-gcc/7-2017q4/bin/../lib/gcc/arm-none-eabi/7.2.1/../../../../arm-none-eabi/lib/thumb/v7e-m/fpv4-sp/hard\libm.a(lib_a-s_nan.o)
 .text.nan      0x00000000       0x10 c:/sloeber/arduinoplugin/packages/arduino/tools/arm-none-eabi-gcc/7-2017q4/bin/../lib/gcc/arm-none-eabi/7.2.1/../../../../arm-none-eabi/lib/thumb/v7e-m/fpv4-sp/hard\libm.a(lib_a-s_nan.o)
 .debug_frame   0x00000000       0x20 c:/sloeber/arduinoplugin/packages/arduino/tools/arm-none-eabi-gcc/7-2017q4/bin/../lib/gcc/arm-none-eabi/7.2.1/../../../../arm-none-eabi/lib/thumb/v7e-m/fpv4-sp/hard\libm.a(lib_a-s_nan.o)
 .ARM.attributes
                0x00000000       0x34 c:/sloeber/arduinoplugin/packages/arduino/tools/arm-none-eabi-gcc/7-2017q4/bin/../lib/gcc/arm-none-eabi/7.2.1/../../../../arm-none-eabi/lib/thumb/v7e-m/fpv4-sp/hard\libm.a(lib_a-s_nan.o)
 .text          0x00000000        0x0 c:/sloeber/arduinoplugin/packages/arduino/tools/arm-none-eabi-gcc/7-2017q4/bin/../lib/gcc/arm-none-eabi/7.2.1/../../../../arm-none-eabi/lib/thumb/v7e-m/fpv4-sp/hard\libm.a(lib_a-s_rint.o)
 .data          0x00000000        0x0 c:/sloeber/arduinoplugin/packages/arduino/tools/arm-none-eabi-gcc/7-2017q4/bin/../lib/gcc/arm-none-eabi/7.2.1/../../../../arm-none-eabi/lib/thumb/v7e-m/fpv4-sp/hard\libm.a(lib_a-s_rint.o)
 .bss           0x00000000        0x0 c:/sloeber/arduinoplugin/packages/arduino/tools/arm-none-eabi-gcc/7-2017q4/bin/../lib/gcc/arm-none-eabi/7.2.1/../../../../arm-none-eabi/lib/thumb/v7e-m/fpv4-sp/hard\libm.a(lib_a-s_rint.o)
 .text.rint     0x00000000      0x110 c:/sloeber/arduinoplugin/packages/arduino/tools/arm-none-eabi-gcc/7-2017q4/bin/../lib/gcc/arm-none-eabi/7.2.1/../../../../arm-none-eabi/lib/thumb/v7e-m/fpv4-sp/hard\libm.a(lib_a-s_rint.o)
 .rodata.TWO52  0x00000000       0x10 c:/sloeber/arduinoplugin/packages/arduino/tools/arm-none-eabi-gcc/7-2017q4/bin/../lib/gcc/arm-none-eabi/7.2.1/../../../../arm-none-eabi/lib/thumb/v7e-m/fpv4-sp/hard\libm.a(lib_a-s_rint.o)
 .debug_frame   0x00000000       0x38 c:/sloeber/arduinoplugin/packages/arduino/tools/arm-none-eabi-gcc/7-2017q4/bin/../lib/gcc/arm-none-eabi/7.2.1/../../../../arm-none-eabi/lib/thumb/v7e-m/fpv4-sp/hard\libm.a(lib_a-s_rint.o)
 .ARM.attributes
                0x00000000       0x34 c:/sloeber/arduinoplugin/packages/arduino/tools/arm-none-eabi-gcc/7-2017q4/bin/../lib/gcc/arm-none-eabi/7.2.1/../../../../arm-none-eabi/lib/thumb/v7e-m/fpv4-sp/hard\libm.a(lib_a-s_rint.o)
 .text          0x00000000        0x0 c:/sloeber/arduinoplugin/packages/arduino/tools/arm-none-eabi-gcc/7-2017q4/bin/../lib/gcc/arm-none-eabi/7.2.1/../../../../arm-none-eabi/lib/thumb/v7e-m/fpv4-sp/hard\libm.a(lib_a-s_scalbn.o)
 .data          0x00000000        0x0 c:/sloeber/arduinoplugin/packages/arduino/tools/arm-none-eabi-gcc/7-2017q4/bin/../lib/gcc/arm-none-eabi/7.2.1/../../../../arm-none-eabi/lib/thumb/v7e-m/fpv4-sp/hard\libm.a(lib_a-s_scalbn.o)
 .bss           0x00000000        0x0 c:/sloeber/arduinoplugin/packages/arduino/tools/arm-none-eabi-gcc/7-2017q4/bin/../lib/gcc/arm-none-eabi/7.2.1/../../../../arm-none-eabi/lib/thumb/v7e-m/fpv4-sp/hard\libm.a(lib_a-s_scalbn.o)
 .text.scalbn   0x00000000      0x114 c:/sloeber/arduinoplugin/packages/arduino/tools/arm-none-eabi-gcc/7-2017q4/bin/../lib/gcc/arm-none-eabi/7.2.1/../../../../arm-none-eabi/lib/thumb/v7e-m/fpv4-sp/hard\libm.a(lib_a-s_scalbn.o)
 .debug_frame   0x00000000       0x2c c:/sloeber/arduinoplugin/packages/arduino/tools/arm-none-eabi-gcc/7-2017q4/bin/../lib/gcc/arm-none-eabi/7.2.1/../../../../arm-none-eabi/lib/thumb/v7e-m/fpv4-sp/hard\libm.a(lib_a-s_scalbn.o)
 .ARM.attributes
                0x00000000       0x34 c:/sloeber/arduinoplugin/packages/arduino/tools/arm-none-eabi-gcc/7-2017q4/bin/../lib/gcc/arm-none-eabi/7.2.1/../../../../arm-none-eabi/lib/thumb/v7e-m/fpv4-sp/hard\libm.a(lib_a-s_scalbn.o)
 .text          0x00000000        0x0 c:/sloeber/arduinoplugin/packages/arduino/tools/arm-none-eabi-gcc/7-2017q4/bin/../lib/gcc/arm-none-eabi/7.2.1/../../../../arm-none-eabi/lib/thumb/v7e-m/fpv4-sp/hard\libm.a(lib_a-s_copysign.o)
 .data          0x00000000        0x0 c:/sloeber/arduinoplugin/packages/arduino/tools/arm-none-eabi-gcc/7-2017q4/bin/../lib/gcc/arm-none-eabi/7.2.1/../../../../arm-none-eabi/lib/thumb/v7e-m/fpv4-sp/hard\libm.a(lib_a-s_copysign.o)
 .bss           0x00000000        0x0 c:/sloeber/arduinoplugin/packages/arduino/tools/arm-none-eabi-gcc/7-2017q4/bin/../lib/gcc/arm-none-eabi/7.2.1/../../../../arm-none-eabi/lib/thumb/v7e-m/fpv4-sp/hard\libm.a(lib_a-s_copysign.o)
 .text.copysign
                0x00000000       0x1c c:/sloeber/arduinoplugin/packages/arduino/tools/arm-none-eabi-gcc/7-2017q4/bin/../lib/gcc/arm-none-eabi/7.2.1/../../../../arm-none-eabi/lib/thumb/v7e-m/fpv4-sp/hard\libm.a(lib_a-s_copysign.o)
 .debug_frame   0x00000000       0x20 c:/sloeber/arduinoplugin/packages/arduino/tools/arm-none-eabi-gcc/7-2017q4/bin/../lib/gcc/arm-none-eabi/7.2.1/../../../../arm-none-eabi/lib/thumb/v7e-m/fpv4-sp/hard\libm.a(lib_a-s_copysign.o)
 .ARM.attributes
                0x00000000       0x34 c:/sloeber/arduinoplugin/packages/arduino/tools/arm-none-eabi-gcc/7-2017q4/bin/../lib/gcc/arm-none-eabi/7.2.1/../../../../arm-none-eabi/lib/thumb/v7e-m/fpv4-sp/hard\libm.a(lib_a-s_copysign.o)
 .text          0x00000000      0x378 c:/sloeber/arduinoplugin/packages/arduino/tools/arm-none-eabi-gcc/7-2017q4/bin/../lib/gcc/arm-none-eabi/7.2.1/thumb/v7e-m/fpv4-sp/hard\libgcc.a(_arm_addsubdf3.o)
 .data          0x00000000        0x0 c:/sloeber/arduinoplugin/packages/arduino/tools/arm-none-eabi-gcc/7-2017q4/bin/../lib/gcc/arm-none-eabi/7.2.1/thumb/v7e-m/fpv4-sp/hard\libgcc.a(_arm_addsubdf3.o)
 .bss           0x00000000        0x0 c:/sloeber/arduinoplugin/packages/arduino/tools/arm-none-eabi-gcc/7-2017q4/bin/../lib/gcc/arm-none-eabi/7.2.1/thumb/v7e-m/fpv4-sp/hard\libgcc.a(_arm_addsubdf3.o)
 .debug_frame   0x00000000       0xac c:/sloeber/arduinoplugin/packages/arduino/tools/arm-none-eabi-gcc/7-2017q4/bin/../lib/gcc/arm-none-eabi/7.2.1/thumb/v7e-m/fpv4-sp/hard\libgcc.a(_arm_addsubdf3.o)
 .ARM.attributes
                0x00000000       0x22 c:/sloeber/arduinoplugin/packages/arduino/tools/arm-none-eabi-gcc/7-2017q4/bin/../lib/gcc/arm-none-eabi/7.2.1/thumb/v7e-m/fpv4-sp/hard\libgcc.a(_arm_addsubdf3.o)
 .text          0x00000000      0x424 c:/sloeber/arduinoplugin/packages/arduino/tools/arm-none-eabi-gcc/7-2017q4/bin/../lib/gcc/arm-none-eabi/7.2.1/thumb/v7e-m/fpv4-sp/hard\libgcc.a(_arm_muldivdf3.o)
 .data          0x00000000        0x0 c:/sloeber/arduinoplugin/packages/arduino/tools/arm-none-eabi-gcc/7-2017q4/bin/../lib/gcc/arm-none-eabi/7.2.1/thumb/v7e-m/fpv4-sp/hard\libgcc.a(_arm_muldivdf3.o)
 .bss           0x00000000        0x0 c:/sloeber/arduinoplugin/packages/arduino/tools/arm-none-eabi-gcc/7-2017q4/bin/../lib/gcc/arm-none-eabi/7.2.1/thumb/v7e-m/fpv4-sp/hard\libgcc.a(_arm_muldivdf3.o)
 .debug_frame   0x00000000       0x50 c:/sloeber/arduinoplugin/packages/arduino/tools/arm-none-eabi-gcc/7-2017q4/bin/../lib/gcc/arm-none-eabi/7.2.1/thumb/v7e-m/fpv4-sp/hard\libgcc.a(_arm_muldivdf3.o)
 .ARM.attributes
                0x00000000       0x22 c:/sloeber/arduinoplugin/packages/arduino/tools/arm-none-eabi-gcc/7-2017q4/bin/../lib/gcc/arm-none-eabi/7.2.1/thumb/v7e-m/fpv4-sp/hard\libgcc.a(_arm_muldivdf3.o)
 .text          0x00000000      0x110 c:/sloeber/arduinoplugin/packages/arduino/tools/arm-none-eabi-gcc/7-2017q4/bin/../lib/gcc/arm-none-eabi/7.2.1/thumb/v7e-m/fpv4-sp/hard\libgcc.a(_arm_cmpdf2.o)
 .data          0x00000000        0x0 c:/sloeber/arduinoplugin/packages/arduino/tools/arm-none-eabi-gcc/7-2017q4/bin/../lib/gcc/arm-none-eabi/7.2.1/thumb/v7e-m/fpv4-sp/hard\libgcc.a(_arm_cmpdf2.o)
 .bss           0x00000000        0x0 c:/sloeber/arduinoplugin/packages/arduino/tools/arm-none-eabi-gcc/7-2017q4/bin/../lib/gcc/arm-none-eabi/7.2.1/thumb/v7e-m/fpv4-sp/hard\libgcc.a(_arm_cmpdf2.o)
 .debug_frame   0x00000000       0xc4 c:/sloeber/arduinoplugin/packages/arduino/tools/arm-none-eabi-gcc/7-2017q4/bin/../lib/gcc/arm-none-eabi/7.2.1/thumb/v7e-m/fpv4-sp/hard\libgcc.a(_arm_cmpdf2.o)
 .ARM.attributes
                0x00000000       0x22 c:/sloeber/arduinoplugin/packages/arduino/tools/arm-none-eabi-gcc/7-2017q4/bin/../lib/gcc/arm-none-eabi/7.2.1/thumb/v7e-m/fpv4-sp/hard\libgcc.a(_arm_cmpdf2.o)
 .text          0x00000000       0x2c c:/sloeber/arduinoplugin/packages/arduino/tools/arm-none-eabi-gcc/7-2017q4/bin/../lib/gcc/arm-none-eabi/7.2.1/thumb/v7e-m/fpv4-sp/hard\libgcc.a(_arm_unorddf2.o)
 .data          0x00000000        0x0 c:/sloeber/arduinoplugin/packages/arduino/tools/arm-none-eabi-gcc/7-2017q4/bin/../lib/gcc/arm-none-eabi/7.2.1/thumb/v7e-m/fpv4-sp/hard\libgcc.a(_arm_unorddf2.o)
 .bss           0x00000000        0x0 c:/sloeber/arduinoplugin/packages/arduino/tools/arm-none-eabi-gcc/7-2017q4/bin/../lib/gcc/arm-none-eabi/7.2.1/thumb/v7e-m/fpv4-sp/hard\libgcc.a(_arm_unorddf2.o)
 .debug_frame   0x00000000       0x20 c:/sloeber/arduinoplugin/packages/arduino/tools/arm-none-eabi-gcc/7-2017q4/bin/../lib/gcc/arm-none-eabi/7.2.1/thumb/v7e-m/fpv4-sp/hard\libgcc.a(_arm_unorddf2.o)
 .ARM.attributes
                0x00000000       0x22 c:/sloeber/arduinoplugin/packages/arduino/tools/arm-none-eabi-gcc/7-2017q4/bin/../lib/gcc/arm-none-eabi/7.2.1/thumb/v7e-m/fpv4-sp/hard\libgcc.a(_arm_unorddf2.o)
 .text          0x00000000       0x40 c:/sloeber/arduinoplugin/packages/arduino/tools/arm-none-eabi-gcc/7-2017q4/bin/../lib/gcc/arm-none-eabi/7.2.1/thumb/v7e-m/fpv4-sp/hard\libgcc.a(_arm_fixunsdfsi.o)
 .data          0x00000000        0x0 c:/sloeber/arduinoplugin/packages/arduino/tools/arm-none-eabi-gcc/7-2017q4/bin/../lib/gcc/arm-none-eabi/7.2.1/thumb/v7e-m/fpv4-sp/hard\libgcc.a(_arm_fixunsdfsi.o)
 .bss           0x00000000        0x0 c:/sloeber/arduinoplugin/packages/arduino/tools/arm-none-eabi-gcc/7-2017q4/bin/../lib/gcc/arm-none-eabi/7.2.1/thumb/v7e-m/fpv4-sp/hard\libgcc.a(_arm_fixunsdfsi.o)
 .debug_frame   0x00000000       0x24 c:/sloeber/arduinoplugin/packages/arduino/tools/arm-none-eabi-gcc/7-2017q4/bin/../lib/gcc/arm-none-eabi/7.2.1/thumb/v7e-m/fpv4-sp/hard\libgcc.a(_arm_fixunsdfsi.o)
 .ARM.attributes
                0x00000000       0x22 c:/sloeber/arduinoplugin/packages/arduino/tools/arm-none-eabi-gcc/7-2017q4/bin/../lib/gcc/arm-none-eabi/7.2.1/thumb/v7e-m/fpv4-sp/hard\libgcc.a(_arm_fixunsdfsi.o)
 .text          0x00000000        0x0 c:/sloeber/arduinoplugin/packages/arduino/tools/arm-none-eabi-gcc/7-2017q4/bin/../lib/gcc/arm-none-eabi/7.2.1/../../../../arm-none-eabi/lib/thumb/v7e-m/fpv4-sp/hard\libc_nano.a(lib_a-assert.o)
 .data          0x00000000        0x0 c:/sloeber/arduinoplugin/packages/arduino/tools/arm-none-eabi-gcc/7-2017q4/bin/../lib/gcc/arm-none-eabi/7.2.1/../../../../arm-none-eabi/lib/thumb/v7e-m/fpv4-sp/hard\libc_nano.a(lib_a-assert.o)
 .bss           0x00000000        0x0 c:/sloeber/arduinoplugin/packages/arduino/tools/arm-none-eabi-gcc/7-2017q4/bin/../lib/gcc/arm-none-eabi/7.2.1/../../../../arm-none-eabi/lib/thumb/v7e-m/fpv4-sp/hard\libc_nano.a(lib_a-assert.o)
 .text.__assert
                0x00000000        0xa c:/sloeber/arduinoplugin/packages/arduino/tools/arm-none-eabi-gcc/7-2017q4/bin/../lib/gcc/arm-none-eabi/7.2.1/../../../../arm-none-eabi/lib/thumb/v7e-m/fpv4-sp/hard\libc_nano.a(lib_a-assert.o)
 .text          0x00000000        0x0 c:/sloeber/arduinoplugin/packages/arduino/tools/arm-none-eabi-gcc/7-2017q4/bin/../lib/gcc/arm-none-eabi/7.2.1/../../../../arm-none-eabi/lib/thumb/v7e-m/fpv4-sp/hard\libc_nano.a(lib_a-errno.o)
 .data          0x00000000        0x0 c:/sloeber/arduinoplugin/packages/arduino/tools/arm-none-eabi-gcc/7-2017q4/bin/../lib/gcc/arm-none-eabi/7.2.1/../../../../arm-none-eabi/lib/thumb/v7e-m/fpv4-sp/hard\libc_nano.a(lib_a-errno.o)
 .bss           0x00000000        0x0 c:/sloeber/arduinoplugin/packages/arduino/tools/arm-none-eabi-gcc/7-2017q4/bin/../lib/gcc/arm-none-eabi/7.2.1/../../../../arm-none-eabi/lib/thumb/v7e-m/fpv4-sp/hard\libc_nano.a(lib_a-errno.o)
 .text.__errno  0x00000000        0xc c:/sloeber/arduinoplugin/packages/arduino/tools/arm-none-eabi-gcc/7-2017q4/bin/../lib/gcc/arm-none-eabi/7.2.1/../../../../arm-none-eabi/lib/thumb/v7e-m/fpv4-sp/hard\libc_nano.a(lib_a-errno.o)
 .debug_frame   0x00000000       0x20 c:/sloeber/arduinoplugin/packages/arduino/tools/arm-none-eabi-gcc/7-2017q4/bin/../lib/gcc/arm-none-eabi/7.2.1/../../../../arm-none-eabi/lib/thumb/v7e-m/fpv4-sp/hard\libc_nano.a(lib_a-errno.o)
 .ARM.attributes
                0x00000000       0x34 c:/sloeber/arduinoplugin/packages/arduino/tools/arm-none-eabi-gcc/7-2017q4/bin/../lib/gcc/arm-none-eabi/7.2.1/../../../../arm-none-eabi/lib/thumb/v7e-m/fpv4-sp/hard\libc_nano.a(lib_a-errno.o)
 .text          0x00000000        0x0 c:/sloeber/arduinoplugin/packages/arduino/tools/arm-none-eabi-gcc/7-2017q4/bin/../lib/gcc/arm-none-eabi/7.2.1/../../../../arm-none-eabi/lib/thumb/v7e-m/fpv4-sp/hard\libc_nano.a(lib_a-exit.o)
 .data          0x00000000        0x0 c:/sloeber/arduinoplugin/packages/arduino/tools/arm-none-eabi-gcc/7-2017q4/bin/../lib/gcc/arm-none-eabi/7.2.1/../../../../arm-none-eabi/lib/thumb/v7e-m/fpv4-sp/hard\libc_nano.a(lib_a-exit.o)
 .bss           0x00000000        0x0 c:/sloeber/arduinoplugin/packages/arduino/tools/arm-none-eabi-gcc/7-2017q4/bin/../lib/gcc/arm-none-eabi/7.2.1/../../../../arm-none-eabi/lib/thumb/v7e-m/fpv4-sp/hard\libc_nano.a(lib_a-exit.o)
 .text.exit     0x00000000       0x28 c:/sloeber/arduinoplugin/packages/arduino/tools/arm-none-eabi-gcc/7-2017q4/bin/../lib/gcc/arm-none-eabi/7.2.1/../../../../arm-none-eabi/lib/thumb/v7e-m/fpv4-sp/hard\libc_nano.a(lib_a-exit.o)
 .debug_frame   0x00000000       0x28 c:/sloeber/arduinoplugin/packages/arduino/tools/arm-none-eabi-gcc/7-2017q4/bin/../lib/gcc/arm-none-eabi/7.2.1/../../../../arm-none-eabi/lib/thumb/v7e-m/fpv4-sp/hard\libc_nano.a(lib_a-exit.o)
 .ARM.attributes
                0x00000000       0x34 c:/sloeber/arduinoplugin/packages/arduino/tools/arm-none-eabi-gcc/7-2017q4/bin/../lib/gcc/arm-none-eabi/7.2.1/../../../../arm-none-eabi/lib/thumb/v7e-m/fpv4-sp/hard\libc_nano.a(lib_a-exit.o)
 .text          0x00000000        0x0 c:/sloeber/arduinoplugin/packages/arduino/tools/arm-none-eabi-gcc/7-2017q4/bin/../lib/gcc/arm-none-eabi/7.2.1/../../../../arm-none-eabi/lib/thumb/v7e-m/fpv4-sp/hard\libc_nano.a(lib_a-fprintf.o)
 .data          0x00000000        0x0 c:/sloeber/arduinoplugin/packages/arduino/tools/arm-none-eabi-gcc/7-2017q4/bin/../lib/gcc/arm-none-eabi/7.2.1/../../../../arm-none-eabi/lib/thumb/v7e-m/fpv4-sp/hard\libc_nano.a(lib_a-fprintf.o)
 .bss           0x00000000        0x0 c:/sloeber/arduinoplugin/packages/arduino/tools/arm-none-eabi-gcc/7-2017q4/bin/../lib/gcc/arm-none-eabi/7.2.1/../../../../arm-none-eabi/lib/thumb/v7e-m/fpv4-sp/hard\libc_nano.a(lib_a-fprintf.o)
 .text._fprintf_r
                0x00000000       0x1a c:/sloeber/arduinoplugin/packages/arduino/tools/arm-none-eabi-gcc/7-2017q4/bin/../lib/gcc/arm-none-eabi/7.2.1/../../../../arm-none-eabi/lib/thumb/v7e-m/fpv4-sp/hard\libc_nano.a(lib_a-fprintf.o)
 .text          0x00000000        0x0 c:/sloeber/arduinoplugin/packages/arduino/tools/arm-none-eabi-gcc/7-2017q4/bin/../lib/gcc/arm-none-eabi/7.2.1/../../../../arm-none-eabi/lib/thumb/v7e-m/fpv4-sp/hard\libc_nano.a(lib_a-impure.o)
 .data          0x00000000        0x0 c:/sloeber/arduinoplugin/packages/arduino/tools/arm-none-eabi-gcc/7-2017q4/bin/../lib/gcc/arm-none-eabi/7.2.1/../../../../arm-none-eabi/lib/thumb/v7e-m/fpv4-sp/hard\libc_nano.a(lib_a-impure.o)
 .bss           0x00000000        0x0 c:/sloeber/arduinoplugin/packages/arduino/tools/arm-none-eabi-gcc/7-2017q4/bin/../lib/gcc/arm-none-eabi/7.2.1/../../../../arm-none-eabi/lib/thumb/v7e-m/fpv4-sp/hard\libc_nano.a(lib_a-impure.o)
 .text          0x00000000        0x0 c:/sloeber/arduinoplugin/packages/arduino/tools/arm-none-eabi-gcc/7-2017q4/bin/../lib/gcc/arm-none-eabi/7.2.1/../../../../arm-none-eabi/lib/thumb/v7e-m/fpv4-sp/hard\libc_nano.a(lib_a-init.o)
 .data          0x00000000        0x0 c:/sloeber/arduinoplugin/packages/arduino/tools/arm-none-eabi-gcc/7-2017q4/bin/../lib/gcc/arm-none-eabi/7.2.1/../../../../arm-none-eabi/lib/thumb/v7e-m/fpv4-sp/hard\libc_nano.a(lib_a-init.o)
 .bss           0x00000000        0x0 c:/sloeber/arduinoplugin/packages/arduino/tools/arm-none-eabi-gcc/7-2017q4/bin/../lib/gcc/arm-none-eabi/7.2.1/../../../../arm-none-eabi/lib/thumb/v7e-m/fpv4-sp/hard\libc_nano.a(lib_a-init.o)
 .text          0x00000000        0x0 c:/sloeber/arduinoplugin/packages/arduino/tools/arm-none-eabi-gcc/7-2017q4/bin/../lib/gcc/arm-none-eabi/7.2.1/../../../../arm-none-eabi/lib/thumb/v7e-m/fpv4-sp/hard\libc_nano.a(lib_a-malign.o)
 .data          0x00000000        0x0 c:/sloeber/arduinoplugin/packages/arduino/tools/arm-none-eabi-gcc/7-2017q4/bin/../lib/gcc/arm-none-eabi/7.2.1/../../../../arm-none-eabi/lib/thumb/v7e-m/fpv4-sp/hard\libc_nano.a(lib_a-malign.o)
 .bss           0x00000000        0x0 c:/sloeber/arduinoplugin/packages/arduino/tools/arm-none-eabi-gcc/7-2017q4/bin/../lib/gcc/arm-none-eabi/7.2.1/../../../../arm-none-eabi/lib/thumb/v7e-m/fpv4-sp/hard\libc_nano.a(lib_a-malign.o)
 .text.memalign
                0x00000000       0x10 c:/sloeber/arduinoplugin/packages/arduino/tools/arm-none-eabi-gcc/7-2017q4/bin/../lib/gcc/arm-none-eabi/7.2.1/../../../../arm-none-eabi/lib/thumb/v7e-m/fpv4-sp/hard\libc_nano.a(lib_a-malign.o)
 .debug_frame   0x00000000       0x20 c:/sloeber/arduinoplugin/packages/arduino/tools/arm-none-eabi-gcc/7-2017q4/bin/../lib/gcc/arm-none-eabi/7.2.1/../../../../arm-none-eabi/lib/thumb/v7e-m/fpv4-sp/hard\libc_nano.a(lib_a-malign.o)
 .ARM.attributes
                0x00000000       0x34 c:/sloeber/arduinoplugin/packages/arduino/tools/arm-none-eabi-gcc/7-2017q4/bin/../lib/gcc/arm-none-eabi/7.2.1/../../../../arm-none-eabi/lib/thumb/v7e-m/fpv4-sp/hard\libc_nano.a(lib_a-malign.o)
 .text          0x00000000        0x0 c:/sloeber/arduinoplugin/packages/arduino/tools/arm-none-eabi-gcc/7-2017q4/bin/../lib/gcc/arm-none-eabi/7.2.1/../../../../arm-none-eabi/lib/thumb/v7e-m/fpv4-sp/hard\libc_nano.a(lib_a-malloc.o)
 .data          0x00000000        0x0 c:/sloeber/arduinoplugin/packages/arduino/tools/arm-none-eabi-gcc/7-2017q4/bin/../lib/gcc/arm-none-eabi/7.2.1/../../../../arm-none-eabi/lib/thumb/v7e-m/fpv4-sp/hard\libc_nano.a(lib_a-malloc.o)
 .bss           0x00000000        0x0 c:/sloeber/arduinoplugin/packages/arduino/tools/arm-none-eabi-gcc/7-2017q4/bin/../lib/gcc/arm-none-eabi/7.2.1/../../../../arm-none-eabi/lib/thumb/v7e-m/fpv4-sp/hard\libc_nano.a(lib_a-malloc.o)
 .text          0x00000000        0x0 c:/sloeber/arduinoplugin/packages/arduino/tools/arm-none-eabi-gcc/7-2017q4/bin/../lib/gcc/arm-none-eabi/7.2.1/../../../../arm-none-eabi/lib/thumb/v7e-m/fpv4-sp/hard\libc_nano.a(lib_a-memcpy-stub.o)
 .data          0x00000000        0x0 c:/sloeber/arduinoplugin/packages/arduino/tools/arm-none-eabi-gcc/7-2017q4/bin/../lib/gcc/arm-none-eabi/7.2.1/../../../../arm-none-eabi/lib/thumb/v7e-m/fpv4-sp/hard\libc_nano.a(lib_a-memcpy-stub.o)
 .bss           0x00000000        0x0 c:/sloeber/arduinoplugin/packages/arduino/tools/arm-none-eabi-gcc/7-2017q4/bin/../lib/gcc/arm-none-eabi/7.2.1/../../../../arm-none-eabi/lib/thumb/v7e-m/fpv4-sp/hard\libc_nano.a(lib_a-memcpy-stub.o)
 .text          0x00000000        0x0 c:/sloeber/arduinoplugin/packages/arduino/tools/arm-none-eabi-gcc/7-2017q4/bin/../lib/gcc/arm-none-eabi/7.2.1/../../../../arm-none-eabi/lib/thumb/v7e-m/fpv4-sp/hard\libc_nano.a(lib_a-memset.o)
 .data          0x00000000        0x0 c:/sloeber/arduinoplugin/packages/arduino/tools/arm-none-eabi-gcc/7-2017q4/bin/../lib/gcc/arm-none-eabi/7.2.1/../../../../arm-none-eabi/lib/thumb/v7e-m/fpv4-sp/hard\libc_nano.a(lib_a-memset.o)
 .bss           0x00000000        0x0 c:/sloeber/arduinoplugin/packages/arduino/tools/arm-none-eabi-gcc/7-2017q4/bin/../lib/gcc/arm-none-eabi/7.2.1/../../../../arm-none-eabi/lib/thumb/v7e-m/fpv4-sp/hard\libc_nano.a(lib_a-memset.o)
 .text          0x00000000        0x0 c:/sloeber/arduinoplugin/packages/arduino/tools/arm-none-eabi-gcc/7-2017q4/bin/../lib/gcc/arm-none-eabi/7.2.1/../../../../arm-none-eabi/lib/thumb/v7e-m/fpv4-sp/hard\libc_nano.a(lib_a-nano-freer.o)
 .data          0x00000000        0x0 c:/sloeber/arduinoplugin/packages/arduino/tools/arm-none-eabi-gcc/7-2017q4/bin/../lib/gcc/arm-none-eabi/7.2.1/../../../../arm-none-eabi/lib/thumb/v7e-m/fpv4-sp/hard\libc_nano.a(lib_a-nano-freer.o)
 .bss           0x00000000        0x0 c:/sloeber/arduinoplugin/packages/arduino/tools/arm-none-eabi-gcc/7-2017q4/bin/../lib/gcc/arm-none-eabi/7.2.1/../../../../arm-none-eabi/lib/thumb/v7e-m/fpv4-sp/hard\libc_nano.a(lib_a-nano-freer.o)
 .text          0x00000000        0x0 c:/sloeber/arduinoplugin/packages/arduino/tools/arm-none-eabi-gcc/7-2017q4/bin/../lib/gcc/arm-none-eabi/7.2.1/../../../../arm-none-eabi/lib/thumb/v7e-m/fpv4-sp/hard\libc_nano.a(lib_a-nano-malignr.o)
 .data          0x00000000        0x0 c:/sloeber/arduinoplugin/packages/arduino/tools/arm-none-eabi-gcc/7-2017q4/bin/../lib/gcc/arm-none-eabi/7.2.1/../../../../arm-none-eabi/lib/thumb/v7e-m/fpv4-sp/hard\libc_nano.a(lib_a-nano-malignr.o)
 .bss           0x00000000        0x0 c:/sloeber/arduinoplugin/packages/arduino/tools/arm-none-eabi-gcc/7-2017q4/bin/../lib/gcc/arm-none-eabi/7.2.1/../../../../arm-none-eabi/lib/thumb/v7e-m/fpv4-sp/hard\libc_nano.a(lib_a-nano-malignr.o)
 .text._memalign_r
                0x00000000       0x8a c:/sloeber/arduinoplugin/packages/arduino/tools/arm-none-eabi-gcc/7-2017q4/bin/../lib/gcc/arm-none-eabi/7.2.1/../../../../arm-none-eabi/lib/thumb/v7e-m/fpv4-sp/hard\libc_nano.a(lib_a-nano-malignr.o)
 .debug_frame   0x00000000       0x30 c:/sloeber/arduinoplugin/packages/arduino/tools/arm-none-eabi-gcc/7-2017q4/bin/../lib/gcc/arm-none-eabi/7.2.1/../../../../arm-none-eabi/lib/thumb/v7e-m/fpv4-sp/hard\libc_nano.a(lib_a-nano-malignr.o)
 .ARM.attributes
                0x00000000       0x34 c:/sloeber/arduinoplugin/packages/arduino/tools/arm-none-eabi-gcc/7-2017q4/bin/../lib/gcc/arm-none-eabi/7.2.1/../../../../arm-none-eabi/lib/thumb/v7e-m/fpv4-sp/hard\libc_nano.a(lib_a-nano-malignr.o)
 .text          0x00000000        0x0 c:/sloeber/arduinoplugin/packages/arduino/tools/arm-none-eabi-gcc/7-2017q4/bin/../lib/gcc/arm-none-eabi/7.2.1/../../../../arm-none-eabi/lib/thumb/v7e-m/fpv4-sp/hard\libc_nano.a(lib_a-nano-mallocr.o)
 .data          0x00000000        0x0 c:/sloeber/arduinoplugin/packages/arduino/tools/arm-none-eabi-gcc/7-2017q4/bin/../lib/gcc/arm-none-eabi/7.2.1/../../../../arm-none-eabi/lib/thumb/v7e-m/fpv4-sp/hard\libc_nano.a(lib_a-nano-mallocr.o)
 .bss           0x00000000        0x0 c:/sloeber/arduinoplugin/packages/arduino/tools/arm-none-eabi-gcc/7-2017q4/bin/../lib/gcc/arm-none-eabi/7.2.1/../../../../arm-none-eabi/lib/thumb/v7e-m/fpv4-sp/hard\libc_nano.a(lib_a-nano-mallocr.o)
 .text          0x00000000        0x0 c:/sloeber/arduinoplugin/packages/arduino/tools/arm-none-eabi-gcc/7-2017q4/bin/../lib/gcc/arm-none-eabi/7.2.1/../../../../arm-none-eabi/lib/thumb/v7e-m/fpv4-sp/hard\libc_nano.a(lib_a-nano-vfprintf.o)
 .data          0x00000000        0x0 c:/sloeber/arduinoplugin/packages/arduino/tools/arm-none-eabi-gcc/7-2017q4/bin/../lib/gcc/arm-none-eabi/7.2.1/../../../../arm-none-eabi/lib/thumb/v7e-m/fpv4-sp/hard\libc_nano.a(lib_a-nano-vfprintf.o)
 .bss           0x00000000        0x0 c:/sloeber/arduinoplugin/packages/arduino/tools/arm-none-eabi-gcc/7-2017q4/bin/../lib/gcc/arm-none-eabi/7.2.1/../../../../arm-none-eabi/lib/thumb/v7e-m/fpv4-sp/hard\libc_nano.a(lib_a-nano-vfprintf.o)
 .text.__sprint_r
                0x00000000       0x1a c:/sloeber/arduinoplugin/packages/arduino/tools/arm-none-eabi-gcc/7-2017q4/bin/../lib/gcc/arm-none-eabi/7.2.1/../../../../arm-none-eabi/lib/thumb/v7e-m/fpv4-sp/hard\libc_nano.a(lib_a-nano-vfprintf.o)
 .text.vfprintf
                0x00000000       0x14 c:/sloeber/arduinoplugin/packages/arduino/tools/arm-none-eabi-gcc/7-2017q4/bin/../lib/gcc/arm-none-eabi/7.2.1/../../../../arm-none-eabi/lib/thumb/v7e-m/fpv4-sp/hard\libc_nano.a(lib_a-nano-vfprintf.o)
 .text          0x00000000        0x0 c:/sloeber/arduinoplugin/packages/arduino/tools/arm-none-eabi-gcc/7-2017q4/bin/../lib/gcc/arm-none-eabi/7.2.1/../../../../arm-none-eabi/lib/thumb/v7e-m/fpv4-sp/hard\libc_nano.a(lib_a-nano-vfprintf_i.o)
 .data          0x00000000        0x0 c:/sloeber/arduinoplugin/packages/arduino/tools/arm-none-eabi-gcc/7-2017q4/bin/../lib/gcc/arm-none-eabi/7.2.1/../../../../arm-none-eabi/lib/thumb/v7e-m/fpv4-sp/hard\libc_nano.a(lib_a-nano-vfprintf_i.o)
 .bss           0x00000000        0x0 c:/sloeber/arduinoplugin/packages/arduino/tools/arm-none-eabi-gcc/7-2017q4/bin/../lib/gcc/arm-none-eabi/7.2.1/../../../../arm-none-eabi/lib/thumb/v7e-m/fpv4-sp/hard\libc_nano.a(lib_a-nano-vfprintf_i.o)
 .text          0x00000000        0x0 c:/sloeber/arduinoplugin/packages/arduino/tools/arm-none-eabi-gcc/7-2017q4/bin/../lib/gcc/arm-none-eabi/7.2.1/../../../../arm-none-eabi/lib/thumb/v7e-m/fpv4-sp/hard\libc_nano.a(lib_a-sbrkr.o)
 .data          0x00000000        0x0 c:/sloeber/arduinoplugin/packages/arduino/tools/arm-none-eabi-gcc/7-2017q4/bin/../lib/gcc/arm-none-eabi/7.2.1/../../../../arm-none-eabi/lib/thumb/v7e-m/fpv4-sp/hard\libc_nano.a(lib_a-sbrkr.o)
 .bss           0x00000000        0x0 c:/sloeber/arduinoplugin/packages/arduino/tools/arm-none-eabi-gcc/7-2017q4/bin/../lib/gcc/arm-none-eabi/7.2.1/../../../../arm-none-eabi/lib/thumb/v7e-m/fpv4-sp/hard\libc_nano.a(lib_a-sbrkr.o)
 .data          0x00000000        0x0 c:/sloeber/arduinoplugin/packages/arduino/tools/arm-none-eabi-gcc/7-2017q4/bin/../lib/gcc/arm-none-eabi/7.2.1/../../../../arm-none-eabi/lib/thumb/v7e-m/fpv4-sp/hard\libc_nano.a(lib_a-strlen.o)
 .bss           0x00000000        0x0 c:/sloeber/arduinoplugin/packages/arduino/tools/arm-none-eabi-gcc/7-2017q4/bin/../lib/gcc/arm-none-eabi/7.2.1/../../../../arm-none-eabi/lib/thumb/v7e-m/fpv4-sp/hard\libc_nano.a(lib_a-strlen.o)
 .text          0x00000000        0x0 c:/sloeber/arduinoplugin/packages/arduino/tools/arm-none-eabi-gcc/7-2017q4/bin/../lib/gcc/arm-none-eabi/7.2.1/../../../../arm-none-eabi/lib/thumb/v7e-m/fpv4-sp/hard\libc_nano.a(lib_a-vsnprintf.o)
 .data          0x00000000        0x0 c:/sloeber/arduinoplugin/packages/arduino/tools/arm-none-eabi-gcc/7-2017q4/bin/../lib/gcc/arm-none-eabi/7.2.1/../../../../arm-none-eabi/lib/thumb/v7e-m/fpv4-sp/hard\libc_nano.a(lib_a-vsnprintf.o)
 .bss           0x00000000        0x0 c:/sloeber/arduinoplugin/packages/arduino/tools/arm-none-eabi-gcc/7-2017q4/bin/../lib/gcc/arm-none-eabi/7.2.1/../../../../arm-none-eabi/lib/thumb/v7e-m/fpv4-sp/hard\libc_nano.a(lib_a-vsnprintf.o)
 .text._vsnprintf_r
                0x00000000       0x58 c:/sloeber/arduinoplugin/packages/arduino/tools/arm-none-eabi-gcc/7-2017q4/bin/../lib/gcc/arm-none-eabi/7.2.1/../../../../arm-none-eabi/lib/thumb/v7e-m/fpv4-sp/hard\libc_nano.a(lib_a-vsnprintf.o)
 .text.vsnprintf
                0x00000000       0x1c c:/sloeber/arduinoplugin/packages/arduino/tools/arm-none-eabi-gcc/7-2017q4/bin/../lib/gcc/arm-none-eabi/7.2.1/../../../../arm-none-eabi/lib/thumb/v7e-m/fpv4-sp/hard\libc_nano.a(lib_a-vsnprintf.o)
 .debug_frame   0x00000000       0x4c c:/sloeber/arduinoplugin/packages/arduino/tools/arm-none-eabi-gcc/7-2017q4/bin/../lib/gcc/arm-none-eabi/7.2.1/../../../../arm-none-eabi/lib/thumb/v7e-m/fpv4-sp/hard\libc_nano.a(lib_a-vsnprintf.o)
 .ARM.attributes
                0x00000000       0x34 c:/sloeber/arduinoplugin/packages/arduino/tools/arm-none-eabi-gcc/7-2017q4/bin/../lib/gcc/arm-none-eabi/7.2.1/../../../../arm-none-eabi/lib/thumb/v7e-m/fpv4-sp/hard\libc_nano.a(lib_a-vsnprintf.o)
 .text          0x00000000        0x0 c:/sloeber/arduinoplugin/packages/arduino/tools/arm-none-eabi-gcc/7-2017q4/bin/../lib/gcc/arm-none-eabi/7.2.1/../../../../arm-none-eabi/lib/thumb/v7e-m/fpv4-sp/hard\libc_nano.a(lib_a-wbuf.o)
 .data          0x00000000        0x0 c:/sloeber/arduinoplugin/packages/arduino/tools/arm-none-eabi-gcc/7-2017q4/bin/../lib/gcc/arm-none-eabi/7.2.1/../../../../arm-none-eabi/lib/thumb/v7e-m/fpv4-sp/hard\libc_nano.a(lib_a-wbuf.o)
 .bss           0x00000000        0x0 c:/sloeber/arduinoplugin/packages/arduino/tools/arm-none-eabi-gcc/7-2017q4/bin/../lib/gcc/arm-none-eabi/7.2.1/../../../../arm-none-eabi/lib/thumb/v7e-m/fpv4-sp/hard\libc_nano.a(lib_a-wbuf.o)
 .text.__swbuf  0x00000000       0x10 c:/sloeber/arduinoplugin/packages/arduino/tools/arm-none-eabi-gcc/7-2017q4/bin/../lib/gcc/arm-none-eabi/7.2.1/../../../../arm-none-eabi/lib/thumb/v7e-m/fpv4-sp/hard\libc_nano.a(lib_a-wbuf.o)
 .text          0x00000000        0x0 c:/sloeber/arduinoplugin/packages/arduino/tools/arm-none-eabi-gcc/7-2017q4/bin/../lib/gcc/arm-none-eabi/7.2.1/../../../../arm-none-eabi/lib/thumb/v7e-m/fpv4-sp/hard\libc_nano.a(lib_a-wsetup.o)
 .data          0x00000000        0x0 c:/sloeber/arduinoplugin/packages/arduino/tools/arm-none-eabi-gcc/7-2017q4/bin/../lib/gcc/arm-none-eabi/7.2.1/../../../../arm-none-eabi/lib/thumb/v7e-m/fpv4-sp/hard\libc_nano.a(lib_a-wsetup.o)
 .bss           0x00000000        0x0 c:/sloeber/arduinoplugin/packages/arduino/tools/arm-none-eabi-gcc/7-2017q4/bin/../lib/gcc/arm-none-eabi/7.2.1/../../../../arm-none-eabi/lib/thumb/v7e-m/fpv4-sp/hard\libc_nano.a(lib_a-wsetup.o)
 .text          0x00000000        0x0 c:/sloeber/arduinoplugin/packages/arduino/tools/arm-none-eabi-gcc/7-2017q4/bin/../lib/gcc/arm-none-eabi/7.2.1/../../../../arm-none-eabi/lib/thumb/v7e-m/fpv4-sp/hard\libc_nano.a(lib_a-abort.o)
 .data          0x00000000        0x0 c:/sloeber/arduinoplugin/packages/arduino/tools/arm-none-eabi-gcc/7-2017q4/bin/../lib/gcc/arm-none-eabi/7.2.1/../../../../arm-none-eabi/lib/thumb/v7e-m/fpv4-sp/hard\libc_nano.a(lib_a-abort.o)
 .bss           0x00000000        0x0 c:/sloeber/arduinoplugin/packages/arduino/tools/arm-none-eabi-gcc/7-2017q4/bin/../lib/gcc/arm-none-eabi/7.2.1/../../../../arm-none-eabi/lib/thumb/v7e-m/fpv4-sp/hard\libc_nano.a(lib_a-abort.o)
 .text          0x00000000        0x0 c:/sloeber/arduinoplugin/packages/arduino/tools/arm-none-eabi-gcc/7-2017q4/bin/../lib/gcc/arm-none-eabi/7.2.1/../../../../arm-none-eabi/lib/thumb/v7e-m/fpv4-sp/hard\libc_nano.a(lib_a-fflush.o)
 .data          0x00000000        0x0 c:/sloeber/arduinoplugin/packages/arduino/tools/arm-none-eabi-gcc/7-2017q4/bin/../lib/gcc/arm-none-eabi/7.2.1/../../../../arm-none-eabi/lib/thumb/v7e-m/fpv4-sp/hard\libc_nano.a(lib_a-fflush.o)
 .bss           0x00000000        0x0 c:/sloeber/arduinoplugin/packages/arduino/tools/arm-none-eabi-gcc/7-2017q4/bin/../lib/gcc/arm-none-eabi/7.2.1/../../../../arm-none-eabi/lib/thumb/v7e-m/fpv4-sp/hard\libc_nano.a(lib_a-fflush.o)
 .text.fflush   0x00000000       0x24 c:/sloeber/arduinoplugin/packages/arduino/tools/arm-none-eabi-gcc/7-2017q4/bin/../lib/gcc/arm-none-eabi/7.2.1/../../../../arm-none-eabi/lib/thumb/v7e-m/fpv4-sp/hard\libc_nano.a(lib_a-fflush.o)
 .text          0x00000000        0x0 c:/sloeber/arduinoplugin/packages/arduino/tools/arm-none-eabi-gcc/7-2017q4/bin/../lib/gcc/arm-none-eabi/7.2.1/../../../../arm-none-eabi/lib/thumb/v7e-m/fpv4-sp/hard\libc_nano.a(lib_a-findfp.o)
 .data          0x00000000        0x0 c:/sloeber/arduinoplugin/packages/arduino/tools/arm-none-eabi-gcc/7-2017q4/bin/../lib/gcc/arm-none-eabi/7.2.1/../../../../arm-none-eabi/lib/thumb/v7e-m/fpv4-sp/hard\libc_nano.a(lib_a-findfp.o)
 .bss           0x00000000        0x0 c:/sloeber/arduinoplugin/packages/arduino/tools/arm-none-eabi-gcc/7-2017q4/bin/../lib/gcc/arm-none-eabi/7.2.1/../../../../arm-none-eabi/lib/thumb/v7e-m/fpv4-sp/hard\libc_nano.a(lib_a-findfp.o)
 .text.__fp_lock
                0x00000000        0x4 c:/sloeber/arduinoplugin/packages/arduino/tools/arm-none-eabi-gcc/7-2017q4/bin/../lib/gcc/arm-none-eabi/7.2.1/../../../../arm-none-eabi/lib/thumb/v7e-m/fpv4-sp/hard\libc_nano.a(lib_a-findfp.o)
 .text.__fp_unlock
                0x00000000        0x4 c:/sloeber/arduinoplugin/packages/arduino/tools/arm-none-eabi-gcc/7-2017q4/bin/../lib/gcc/arm-none-eabi/7.2.1/../../../../arm-none-eabi/lib/thumb/v7e-m/fpv4-sp/hard\libc_nano.a(lib_a-findfp.o)
 .text._cleanup
                0x00000000        0xc c:/sloeber/arduinoplugin/packages/arduino/tools/arm-none-eabi-gcc/7-2017q4/bin/../lib/gcc/arm-none-eabi/7.2.1/../../../../arm-none-eabi/lib/thumb/v7e-m/fpv4-sp/hard\libc_nano.a(lib_a-findfp.o)
 .text.__sfp_lock_acquire
                0x00000000        0x2 c:/sloeber/arduinoplugin/packages/arduino/tools/arm-none-eabi-gcc/7-2017q4/bin/../lib/gcc/arm-none-eabi/7.2.1/../../../../arm-none-eabi/lib/thumb/v7e-m/fpv4-sp/hard\libc_nano.a(lib_a-findfp.o)
 .text.__sfp_lock_release
                0x00000000        0x2 c:/sloeber/arduinoplugin/packages/arduino/tools/arm-none-eabi-gcc/7-2017q4/bin/../lib/gcc/arm-none-eabi/7.2.1/../../../../arm-none-eabi/lib/thumb/v7e-m/fpv4-sp/hard\libc_nano.a(lib_a-findfp.o)
 .text.__sinit_lock_acquire
                0x00000000        0x2 c:/sloeber/arduinoplugin/packages/arduino/tools/arm-none-eabi-gcc/7-2017q4/bin/../lib/gcc/arm-none-eabi/7.2.1/../../../../arm-none-eabi/lib/thumb/v7e-m/fpv4-sp/hard\libc_nano.a(lib_a-findfp.o)
 .text.__sinit_lock_release
                0x00000000        0x2 c:/sloeber/arduinoplugin/packages/arduino/tools/arm-none-eabi-gcc/7-2017q4/bin/../lib/gcc/arm-none-eabi/7.2.1/../../../../arm-none-eabi/lib/thumb/v7e-m/fpv4-sp/hard\libc_nano.a(lib_a-findfp.o)
 .text.__fp_lock_all
                0x00000000       0x14 c:/sloeber/arduinoplugin/packages/arduino/tools/arm-none-eabi-gcc/7-2017q4/bin/../lib/gcc/arm-none-eabi/7.2.1/../../../../arm-none-eabi/lib/thumb/v7e-m/fpv4-sp/hard\libc_nano.a(lib_a-findfp.o)
 .text.__fp_unlock_all
                0x00000000       0x14 c:/sloeber/arduinoplugin/packages/arduino/tools/arm-none-eabi-gcc/7-2017q4/bin/../lib/gcc/arm-none-eabi/7.2.1/../../../../arm-none-eabi/lib/thumb/v7e-m/fpv4-sp/hard\libc_nano.a(lib_a-findfp.o)
 .text          0x00000000        0x0 c:/sloeber/arduinoplugin/packages/arduino/tools/arm-none-eabi-gcc/7-2017q4/bin/../lib/gcc/arm-none-eabi/7.2.1/../../../../arm-none-eabi/lib/thumb/v7e-m/fpv4-sp/hard\libc_nano.a(lib_a-fvwrite.o)
 .data          0x00000000        0x0 c:/sloeber/arduinoplugin/packages/arduino/tools/arm-none-eabi-gcc/7-2017q4/bin/../lib/gcc/arm-none-eabi/7.2.1/../../../../arm-none-eabi/lib/thumb/v7e-m/fpv4-sp/hard\libc_nano.a(lib_a-fvwrite.o)
 .bss           0x00000000        0x0 c:/sloeber/arduinoplugin/packages/arduino/tools/arm-none-eabi-gcc/7-2017q4/bin/../lib/gcc/arm-none-eabi/7.2.1/../../../../arm-none-eabi/lib/thumb/v7e-m/fpv4-sp/hard\libc_nano.a(lib_a-fvwrite.o)
 .text.__sfvwrite_r
                0x00000000      0x29c c:/sloeber/arduinoplugin/packages/arduino/tools/arm-none-eabi-gcc/7-2017q4/bin/../lib/gcc/arm-none-eabi/7.2.1/../../../../arm-none-eabi/lib/thumb/v7e-m/fpv4-sp/hard\libc_nano.a(lib_a-fvwrite.o)
 .debug_frame   0x00000000       0x3c c:/sloeber/arduinoplugin/packages/arduino/tools/arm-none-eabi-gcc/7-2017q4/bin/../lib/gcc/arm-none-eabi/7.2.1/../../../../arm-none-eabi/lib/thumb/v7e-m/fpv4-sp/hard\libc_nano.a(lib_a-fvwrite.o)
 .ARM.attributes
                0x00000000       0x34 c:/sloeber/arduinoplugin/packages/arduino/tools/arm-none-eabi-gcc/7-2017q4/bin/../lib/gcc/arm-none-eabi/7.2.1/../../../../arm-none-eabi/lib/thumb/v7e-m/fpv4-sp/hard\libc_nano.a(lib_a-fvwrite.o)
 .text          0x00000000        0x0 c:/sloeber/arduinoplugin/packages/arduino/tools/arm-none-eabi-gcc/7-2017q4/bin/../lib/gcc/arm-none-eabi/7.2.1/../../../../arm-none-eabi/lib/thumb/v7e-m/fpv4-sp/hard\libc_nano.a(lib_a-fwalk.o)
 .data          0x00000000        0x0 c:/sloeber/arduinoplugin/packages/arduino/tools/arm-none-eabi-gcc/7-2017q4/bin/../lib/gcc/arm-none-eabi/7.2.1/../../../../arm-none-eabi/lib/thumb/v7e-m/fpv4-sp/hard\libc_nano.a(lib_a-fwalk.o)
 .bss           0x00000000        0x0 c:/sloeber/arduinoplugin/packages/arduino/tools/arm-none-eabi-gcc/7-2017q4/bin/../lib/gcc/arm-none-eabi/7.2.1/../../../../arm-none-eabi/lib/thumb/v7e-m/fpv4-sp/hard\libc_nano.a(lib_a-fwalk.o)
 .text._fwalk   0x00000000       0x38 c:/sloeber/arduinoplugin/packages/arduino/tools/arm-none-eabi-gcc/7-2017q4/bin/../lib/gcc/arm-none-eabi/7.2.1/../../../../arm-none-eabi/lib/thumb/v7e-m/fpv4-sp/hard\libc_nano.a(lib_a-fwalk.o)
 .text          0x00000000        0x0 c:/sloeber/arduinoplugin/packages/arduino/tools/arm-none-eabi-gcc/7-2017q4/bin/../lib/gcc/arm-none-eabi/7.2.1/../../../../arm-none-eabi/lib/thumb/v7e-m/fpv4-sp/hard\libc_nano.a(lib_a-makebuf.o)
 .data          0x00000000        0x0 c:/sloeber/arduinoplugin/packages/arduino/tools/arm-none-eabi-gcc/7-2017q4/bin/../lib/gcc/arm-none-eabi/7.2.1/../../../../arm-none-eabi/lib/thumb/v7e-m/fpv4-sp/hard\libc_nano.a(lib_a-makebuf.o)
 .bss           0x00000000        0x0 c:/sloeber/arduinoplugin/packages/arduino/tools/arm-none-eabi-gcc/7-2017q4/bin/../lib/gcc/arm-none-eabi/7.2.1/../../../../arm-none-eabi/lib/thumb/v7e-m/fpv4-sp/hard\libc_nano.a(lib_a-makebuf.o)
 .data          0x00000000        0x0 c:/sloeber/arduinoplugin/packages/arduino/tools/arm-none-eabi-gcc/7-2017q4/bin/../lib/gcc/arm-none-eabi/7.2.1/../../../../arm-none-eabi/lib/thumb/v7e-m/fpv4-sp/hard\libc_nano.a(lib_a-memchr.o)
 .bss           0x00000000        0x0 c:/sloeber/arduinoplugin/packages/arduino/tools/arm-none-eabi-gcc/7-2017q4/bin/../lib/gcc/arm-none-eabi/7.2.1/../../../../arm-none-eabi/lib/thumb/v7e-m/fpv4-sp/hard\libc_nano.a(lib_a-memchr.o)
 .text          0x00000000        0x0 c:/sloeber/arduinoplugin/packages/arduino/tools/arm-none-eabi-gcc/7-2017q4/bin/../lib/gcc/arm-none-eabi/7.2.1/../../../../arm-none-eabi/lib/thumb/v7e-m/fpv4-sp/hard\libc_nano.a(lib_a-memmove.o)
 .data          0x00000000        0x0 c:/sloeber/arduinoplugin/packages/arduino/tools/arm-none-eabi-gcc/7-2017q4/bin/../lib/gcc/arm-none-eabi/7.2.1/../../../../arm-none-eabi/lib/thumb/v7e-m/fpv4-sp/hard\libc_nano.a(lib_a-memmove.o)
 .bss           0x00000000        0x0 c:/sloeber/arduinoplugin/packages/arduino/tools/arm-none-eabi-gcc/7-2017q4/bin/../lib/gcc/arm-none-eabi/7.2.1/../../../../arm-none-eabi/lib/thumb/v7e-m/fpv4-sp/hard\libc_nano.a(lib_a-memmove.o)
 .text.memmove  0x00000000       0x32 c:/sloeber/arduinoplugin/packages/arduino/tools/arm-none-eabi-gcc/7-2017q4/bin/../lib/gcc/arm-none-eabi/7.2.1/../../../../arm-none-eabi/lib/thumb/v7e-m/fpv4-sp/hard\libc_nano.a(lib_a-memmove.o)
 .debug_frame   0x00000000       0x28 c:/sloeber/arduinoplugin/packages/arduino/tools/arm-none-eabi-gcc/7-2017q4/bin/../lib/gcc/arm-none-eabi/7.2.1/../../../../arm-none-eabi/lib/thumb/v7e-m/fpv4-sp/hard\libc_nano.a(lib_a-memmove.o)
 .ARM.attributes
                0x00000000       0x34 c:/sloeber/arduinoplugin/packages/arduino/tools/arm-none-eabi-gcc/7-2017q4/bin/../lib/gcc/arm-none-eabi/7.2.1/../../../../arm-none-eabi/lib/thumb/v7e-m/fpv4-sp/hard\libc_nano.a(lib_a-memmove.o)
 .text          0x00000000        0x0 c:/sloeber/arduinoplugin/packages/arduino/tools/arm-none-eabi-gcc/7-2017q4/bin/../lib/gcc/arm-none-eabi/7.2.1/../../../../arm-none-eabi/lib/thumb/v7e-m/fpv4-sp/hard\libc_nano.a(lib_a-mlock.o)
 .data          0x00000000        0x0 c:/sloeber/arduinoplugin/packages/arduino/tools/arm-none-eabi-gcc/7-2017q4/bin/../lib/gcc/arm-none-eabi/7.2.1/../../../../arm-none-eabi/lib/thumb/v7e-m/fpv4-sp/hard\libc_nano.a(lib_a-mlock.o)
 .bss           0x00000000        0x0 c:/sloeber/arduinoplugin/packages/arduino/tools/arm-none-eabi-gcc/7-2017q4/bin/../lib/gcc/arm-none-eabi/7.2.1/../../../../arm-none-eabi/lib/thumb/v7e-m/fpv4-sp/hard\libc_nano.a(lib_a-mlock.o)
 .text          0x00000000        0x0 c:/sloeber/arduinoplugin/packages/arduino/tools/arm-none-eabi-gcc/7-2017q4/bin/../lib/gcc/arm-none-eabi/7.2.1/../../../../arm-none-eabi/lib/thumb/v7e-m/fpv4-sp/hard\libc_nano.a(lib_a-nano-reallocr.o)
 .data          0x00000000        0x0 c:/sloeber/arduinoplugin/packages/arduino/tools/arm-none-eabi-gcc/7-2017q4/bin/../lib/gcc/arm-none-eabi/7.2.1/../../../../arm-none-eabi/lib/thumb/v7e-m/fpv4-sp/hard\libc_nano.a(lib_a-nano-reallocr.o)
 .bss           0x00000000        0x0 c:/sloeber/arduinoplugin/packages/arduino/tools/arm-none-eabi-gcc/7-2017q4/bin/../lib/gcc/arm-none-eabi/7.2.1/../../../../arm-none-eabi/lib/thumb/v7e-m/fpv4-sp/hard\libc_nano.a(lib_a-nano-reallocr.o)
 .text._realloc_r
                0x00000000       0x4c c:/sloeber/arduinoplugin/packages/arduino/tools/arm-none-eabi-gcc/7-2017q4/bin/../lib/gcc/arm-none-eabi/7.2.1/../../../../arm-none-eabi/lib/thumb/v7e-m/fpv4-sp/hard\libc_nano.a(lib_a-nano-reallocr.o)
 .debug_frame   0x00000000       0x3c c:/sloeber/arduinoplugin/packages/arduino/tools/arm-none-eabi-gcc/7-2017q4/bin/../lib/gcc/arm-none-eabi/7.2.1/../../../../arm-none-eabi/lib/thumb/v7e-m/fpv4-sp/hard\libc_nano.a(lib_a-nano-reallocr.o)
 .ARM.attributes
                0x00000000       0x34 c:/sloeber/arduinoplugin/packages/arduino/tools/arm-none-eabi-gcc/7-2017q4/bin/../lib/gcc/arm-none-eabi/7.2.1/../../../../arm-none-eabi/lib/thumb/v7e-m/fpv4-sp/hard\libc_nano.a(lib_a-nano-reallocr.o)
 .text          0x00000000        0x0 c:/sloeber/arduinoplugin/packages/arduino/tools/arm-none-eabi-gcc/7-2017q4/bin/../lib/gcc/arm-none-eabi/7.2.1/../../../../arm-none-eabi/lib/thumb/v7e-m/fpv4-sp/hard\libc_nano.a(lib_a-nano-svfprintf.o)
 .data          0x00000000        0x0 c:/sloeber/arduinoplugin/packages/arduino/tools/arm-none-eabi-gcc/7-2017q4/bin/../lib/gcc/arm-none-eabi/7.2.1/../../../../arm-none-eabi/lib/thumb/v7e-m/fpv4-sp/hard\libc_nano.a(lib_a-nano-svfprintf.o)
 .bss           0x00000000        0x0 c:/sloeber/arduinoplugin/packages/arduino/tools/arm-none-eabi-gcc/7-2017q4/bin/../lib/gcc/arm-none-eabi/7.2.1/../../../../arm-none-eabi/lib/thumb/v7e-m/fpv4-sp/hard\libc_nano.a(lib_a-nano-svfprintf.o)
 .text.__ssputs_r
                0x00000000       0xb4 c:/sloeber/arduinoplugin/packages/arduino/tools/arm-none-eabi-gcc/7-2017q4/bin/../lib/gcc/arm-none-eabi/7.2.1/../../../../arm-none-eabi/lib/thumb/v7e-m/fpv4-sp/hard\libc_nano.a(lib_a-nano-svfprintf.o)
 .text.__ssprint_r
                0x00000000       0xf0 c:/sloeber/arduinoplugin/packages/arduino/tools/arm-none-eabi-gcc/7-2017q4/bin/../lib/gcc/arm-none-eabi/7.2.1/../../../../arm-none-eabi/lib/thumb/v7e-m/fpv4-sp/hard\libc_nano.a(lib_a-nano-svfprintf.o)
 .text._svfprintf_r
                0x00000000      0x1ec c:/sloeber/arduinoplugin/packages/arduino/tools/arm-none-eabi-gcc/7-2017q4/bin/../lib/gcc/arm-none-eabi/7.2.1/../../../../arm-none-eabi/lib/thumb/v7e-m/fpv4-sp/hard\libc_nano.a(lib_a-nano-svfprintf.o)
 .rodata._svfprintf_r.str1.1
                0x00000000       0x11 c:/sloeber/arduinoplugin/packages/arduino/tools/arm-none-eabi-gcc/7-2017q4/bin/../lib/gcc/arm-none-eabi/7.2.1/../../../../arm-none-eabi/lib/thumb/v7e-m/fpv4-sp/hard\libc_nano.a(lib_a-nano-svfprintf.o)
 .debug_frame   0x00000000       0x90 c:/sloeber/arduinoplugin/packages/arduino/tools/arm-none-eabi-gcc/7-2017q4/bin/../lib/gcc/arm-none-eabi/7.2.1/../../../../arm-none-eabi/lib/thumb/v7e-m/fpv4-sp/hard\libc_nano.a(lib_a-nano-svfprintf.o)
 .ARM.attributes
                0x00000000       0x34 c:/sloeber/arduinoplugin/packages/arduino/tools/arm-none-eabi-gcc/7-2017q4/bin/../lib/gcc/arm-none-eabi/7.2.1/../../../../arm-none-eabi/lib/thumb/v7e-m/fpv4-sp/hard\libc_nano.a(lib_a-nano-svfprintf.o)
 .text          0x00000000        0x0 c:/sloeber/arduinoplugin/packages/arduino/tools/arm-none-eabi-gcc/7-2017q4/bin/../lib/gcc/arm-none-eabi/7.2.1/../../../../arm-none-eabi/lib/thumb/v7e-m/fpv4-sp/hard\libc_nano.a(lib_a-reent.o)
 .data          0x00000000        0x0 c:/sloeber/arduinoplugin/packages/arduino/tools/arm-none-eabi-gcc/7-2017q4/bin/../lib/gcc/arm-none-eabi/7.2.1/../../../../arm-none-eabi/lib/thumb/v7e-m/fpv4-sp/hard\libc_nano.a(lib_a-reent.o)
 .bss           0x00000000        0x0 c:/sloeber/arduinoplugin/packages/arduino/tools/arm-none-eabi-gcc/7-2017q4/bin/../lib/gcc/arm-none-eabi/7.2.1/../../../../arm-none-eabi/lib/thumb/v7e-m/fpv4-sp/hard\libc_nano.a(lib_a-reent.o)
 .text.cleanup_glue
                0x00000000       0x1a c:/sloeber/arduinoplugin/packages/arduino/tools/arm-none-eabi-gcc/7-2017q4/bin/../lib/gcc/arm-none-eabi/7.2.1/../../../../arm-none-eabi/lib/thumb/v7e-m/fpv4-sp/hard\libc_nano.a(lib_a-reent.o)
 .text._reclaim_reent
                0x00000000       0xb8 c:/sloeber/arduinoplugin/packages/arduino/tools/arm-none-eabi-gcc/7-2017q4/bin/../lib/gcc/arm-none-eabi/7.2.1/../../../../arm-none-eabi/lib/thumb/v7e-m/fpv4-sp/hard\libc_nano.a(lib_a-reent.o)
 .text          0x00000000        0x0 c:/sloeber/arduinoplugin/packages/arduino/tools/arm-none-eabi-gcc/7-2017q4/bin/../lib/gcc/arm-none-eabi/7.2.1/../../../../arm-none-eabi/lib/thumb/v7e-m/fpv4-sp/hard\libc_nano.a(lib_a-signal.o)
 .data          0x00000000        0x0 c:/sloeber/arduinoplugin/packages/arduino/tools/arm-none-eabi-gcc/7-2017q4/bin/../lib/gcc/arm-none-eabi/7.2.1/../../../../arm-none-eabi/lib/thumb/v7e-m/fpv4-sp/hard\libc_nano.a(lib_a-signal.o)
 .bss           0x00000000        0x0 c:/sloeber/arduinoplugin/packages/arduino/tools/arm-none-eabi-gcc/7-2017q4/bin/../lib/gcc/arm-none-eabi/7.2.1/../../../../arm-none-eabi/lib/thumb/v7e-m/fpv4-sp/hard\libc_nano.a(lib_a-signal.o)
 .text._init_signal_r
                0x00000000       0x28 c:/sloeber/arduinoplugin/packages/arduino/tools/arm-none-eabi-gcc/7-2017q4/bin/../lib/gcc/arm-none-eabi/7.2.1/../../../../arm-none-eabi/lib/thumb/v7e-m/fpv4-sp/hard\libc_nano.a(lib_a-signal.o)
 .text._signal_r
                0x00000000       0x30 c:/sloeber/arduinoplugin/packages/arduino/tools/arm-none-eabi-gcc/7-2017q4/bin/../lib/gcc/arm-none-eabi/7.2.1/../../../../arm-none-eabi/lib/thumb/v7e-m/fpv4-sp/hard\libc_nano.a(lib_a-signal.o)
 .text.__sigtramp_r
                0x00000000       0x48 c:/sloeber/arduinoplugin/packages/arduino/tools/arm-none-eabi-gcc/7-2017q4/bin/../lib/gcc/arm-none-eabi/7.2.1/../../../../arm-none-eabi/lib/thumb/v7e-m/fpv4-sp/hard\libc_nano.a(lib_a-signal.o)
 .text.signal   0x00000000       0x10 c:/sloeber/arduinoplugin/packages/arduino/tools/arm-none-eabi-gcc/7-2017q4/bin/../lib/gcc/arm-none-eabi/7.2.1/../../../../arm-none-eabi/lib/thumb/v7e-m/fpv4-sp/hard\libc_nano.a(lib_a-signal.o)
 .text._init_signal
                0x00000000        0xc c:/sloeber/arduinoplugin/packages/arduino/tools/arm-none-eabi-gcc/7-2017q4/bin/../lib/gcc/arm-none-eabi/7.2.1/../../../../arm-none-eabi/lib/thumb/v7e-m/fpv4-sp/hard\libc_nano.a(lib_a-signal.o)
 .text.__sigtramp
                0x00000000       0x10 c:/sloeber/arduinoplugin/packages/arduino/tools/arm-none-eabi-gcc/7-2017q4/bin/../lib/gcc/arm-none-eabi/7.2.1/../../../../arm-none-eabi/lib/thumb/v7e-m/fpv4-sp/hard\libc_nano.a(lib_a-signal.o)
 .text          0x00000000        0x0 c:/sloeber/arduinoplugin/packages/arduino/tools/arm-none-eabi-gcc/7-2017q4/bin/../lib/gcc/arm-none-eabi/7.2.1/../../../../arm-none-eabi/lib/thumb/v7e-m/fpv4-sp/hard\libc_nano.a(lib_a-signalr.o)
 .data          0x00000000        0x0 c:/sloeber/arduinoplugin/packages/arduino/tools/arm-none-eabi-gcc/7-2017q4/bin/../lib/gcc/arm-none-eabi/7.2.1/../../../../arm-none-eabi/lib/thumb/v7e-m/fpv4-sp/hard\libc_nano.a(lib_a-signalr.o)
 .bss           0x00000000        0x0 c:/sloeber/arduinoplugin/packages/arduino/tools/arm-none-eabi-gcc/7-2017q4/bin/../lib/gcc/arm-none-eabi/7.2.1/../../../../arm-none-eabi/lib/thumb/v7e-m/fpv4-sp/hard\libc_nano.a(lib_a-signalr.o)
 .text          0x00000000        0x0 c:/sloeber/arduinoplugin/packages/arduino/tools/arm-none-eabi-gcc/7-2017q4/bin/../lib/gcc/arm-none-eabi/7.2.1/../../../../arm-none-eabi/lib/thumb/v7e-m/fpv4-sp/hard\libc_nano.a(lib_a-stdio.o)
 .data          0x00000000        0x0 c:/sloeber/arduinoplugin/packages/arduino/tools/arm-none-eabi-gcc/7-2017q4/bin/../lib/gcc/arm-none-eabi/7.2.1/../../../../arm-none-eabi/lib/thumb/v7e-m/fpv4-sp/hard\libc_nano.a(lib_a-stdio.o)
 .bss           0x00000000        0x0 c:/sloeber/arduinoplugin/packages/arduino/tools/arm-none-eabi-gcc/7-2017q4/bin/../lib/gcc/arm-none-eabi/7.2.1/../../../../arm-none-eabi/lib/thumb/v7e-m/fpv4-sp/hard\libc_nano.a(lib_a-stdio.o)
 .text.__seofread
                0x00000000        0x4 c:/sloeber/arduinoplugin/packages/arduino/tools/arm-none-eabi-gcc/7-2017q4/bin/../lib/gcc/arm-none-eabi/7.2.1/../../../../arm-none-eabi/lib/thumb/v7e-m/fpv4-sp/hard\libc_nano.a(lib_a-stdio.o)
 .text          0x00000000        0x0 c:/sloeber/arduinoplugin/packages/arduino/tools/arm-none-eabi-gcc/7-2017q4/bin/../lib/gcc/arm-none-eabi/7.2.1/../../../../arm-none-eabi/lib/thumb/v7e-m/fpv4-sp/hard\libc_nano.a(lib_a-writer.o)
 .data          0x00000000        0x0 c:/sloeber/arduinoplugin/packages/arduino/tools/arm-none-eabi-gcc/7-2017q4/bin/../lib/gcc/arm-none-eabi/7.2.1/../../../../arm-none-eabi/lib/thumb/v7e-m/fpv4-sp/hard\libc_nano.a(lib_a-writer.o)
 .bss           0x00000000        0x0 c:/sloeber/arduinoplugin/packages/arduino/tools/arm-none-eabi-gcc/7-2017q4/bin/../lib/gcc/arm-none-eabi/7.2.1/../../../../arm-none-eabi/lib/thumb/v7e-m/fpv4-sp/hard\libc_nano.a(lib_a-writer.o)
 .text          0x00000000        0x0 c:/sloeber/arduinoplugin/packages/arduino/tools/arm-none-eabi-gcc/7-2017q4/bin/../lib/gcc/arm-none-eabi/7.2.1/../../../../arm-none-eabi/lib/thumb/v7e-m/fpv4-sp/hard\libc_nano.a(lib_a-closer.o)
 .data          0x00000000        0x0 c:/sloeber/arduinoplugin/packages/arduino/tools/arm-none-eabi-gcc/7-2017q4/bin/../lib/gcc/arm-none-eabi/7.2.1/../../../../arm-none-eabi/lib/thumb/v7e-m/fpv4-sp/hard\libc_nano.a(lib_a-closer.o)
 .bss           0x00000000        0x0 c:/sloeber/arduinoplugin/packages/arduino/tools/arm-none-eabi-gcc/7-2017q4/bin/../lib/gcc/arm-none-eabi/7.2.1/../../../../arm-none-eabi/lib/thumb/v7e-m/fpv4-sp/hard\libc_nano.a(lib_a-closer.o)
 .text          0x00000000        0x0 c:/sloeber/arduinoplugin/packages/arduino/tools/arm-none-eabi-gcc/7-2017q4/bin/../lib/gcc/arm-none-eabi/7.2.1/../../../../arm-none-eabi/lib/thumb/v7e-m/fpv4-sp/hard\libc_nano.a(lib_a-fstatr.o)
 .data          0x00000000        0x0 c:/sloeber/arduinoplugin/packages/arduino/tools/arm-none-eabi-gcc/7-2017q4/bin/../lib/gcc/arm-none-eabi/7.2.1/../../../../arm-none-eabi/lib/thumb/v7e-m/fpv4-sp/hard\libc_nano.a(lib_a-fstatr.o)
 .bss           0x00000000        0x0 c:/sloeber/arduinoplugin/packages/arduino/tools/arm-none-eabi-gcc/7-2017q4/bin/../lib/gcc/arm-none-eabi/7.2.1/../../../../arm-none-eabi/lib/thumb/v7e-m/fpv4-sp/hard\libc_nano.a(lib_a-fstatr.o)
 .text          0x00000000        0x0 c:/sloeber/arduinoplugin/packages/arduino/tools/arm-none-eabi-gcc/7-2017q4/bin/../lib/gcc/arm-none-eabi/7.2.1/../../../../arm-none-eabi/lib/thumb/v7e-m/fpv4-sp/hard\libc_nano.a(lib_a-isattyr.o)
 .data          0x00000000        0x0 c:/sloeber/arduinoplugin/packages/arduino/tools/arm-none-eabi-gcc/7-2017q4/bin/../lib/gcc/arm-none-eabi/7.2.1/../../../../arm-none-eabi/lib/thumb/v7e-m/fpv4-sp/hard\libc_nano.a(lib_a-isattyr.o)
 .bss           0x00000000        0x0 c:/sloeber/arduinoplugin/packages/arduino/tools/arm-none-eabi-gcc/7-2017q4/bin/../lib/gcc/arm-none-eabi/7.2.1/../../../../arm-none-eabi/lib/thumb/v7e-m/fpv4-sp/hard\libc_nano.a(lib_a-isattyr.o)
 .text          0x00000000        0x0 c:/sloeber/arduinoplugin/packages/arduino/tools/arm-none-eabi-gcc/7-2017q4/bin/../lib/gcc/arm-none-eabi/7.2.1/../../../../arm-none-eabi/lib/thumb/v7e-m/fpv4-sp/hard\libc_nano.a(lib_a-lseekr.o)
 .data          0x00000000        0x0 c:/sloeber/arduinoplugin/packages/arduino/tools/arm-none-eabi-gcc/7-2017q4/bin/../lib/gcc/arm-none-eabi/7.2.1/../../../../arm-none-eabi/lib/thumb/v7e-m/fpv4-sp/hard\libc_nano.a(lib_a-lseekr.o)
 .bss           0x00000000        0x0 c:/sloeber/arduinoplugin/packages/arduino/tools/arm-none-eabi-gcc/7-2017q4/bin/../lib/gcc/arm-none-eabi/7.2.1/../../../../arm-none-eabi/lib/thumb/v7e-m/fpv4-sp/hard\libc_nano.a(lib_a-lseekr.o)
 .text          0x00000000        0x0 c:/sloeber/arduinoplugin/packages/arduino/tools/arm-none-eabi-gcc/7-2017q4/bin/../lib/gcc/arm-none-eabi/7.2.1/../../../../arm-none-eabi/lib/thumb/v7e-m/fpv4-sp/hard\libc_nano.a(lib_a-nano-msizer.o)
 .data          0x00000000        0x0 c:/sloeber/arduinoplugin/packages/arduino/tools/arm-none-eabi-gcc/7-2017q4/bin/../lib/gcc/arm-none-eabi/7.2.1/../../../../arm-none-eabi/lib/thumb/v7e-m/fpv4-sp/hard\libc_nano.a(lib_a-nano-msizer.o)
 .bss           0x00000000        0x0 c:/sloeber/arduinoplugin/packages/arduino/tools/arm-none-eabi-gcc/7-2017q4/bin/../lib/gcc/arm-none-eabi/7.2.1/../../../../arm-none-eabi/lib/thumb/v7e-m/fpv4-sp/hard\libc_nano.a(lib_a-nano-msizer.o)
 .text._malloc_usable_size_r
                0x00000000       0x10 c:/sloeber/arduinoplugin/packages/arduino/tools/arm-none-eabi-gcc/7-2017q4/bin/../lib/gcc/arm-none-eabi/7.2.1/../../../../arm-none-eabi/lib/thumb/v7e-m/fpv4-sp/hard\libc_nano.a(lib_a-nano-msizer.o)
 .debug_frame   0x00000000       0x20 c:/sloeber/arduinoplugin/packages/arduino/tools/arm-none-eabi-gcc/7-2017q4/bin/../lib/gcc/arm-none-eabi/7.2.1/../../../../arm-none-eabi/lib/thumb/v7e-m/fpv4-sp/hard\libc_nano.a(lib_a-nano-msizer.o)
 .ARM.attributes
                0x00000000       0x34 c:/sloeber/arduinoplugin/packages/arduino/tools/arm-none-eabi-gcc/7-2017q4/bin/../lib/gcc/arm-none-eabi/7.2.1/../../../../arm-none-eabi/lib/thumb/v7e-m/fpv4-sp/hard\libc_nano.a(lib_a-nano-msizer.o)
 .text          0x00000000        0x0 c:/sloeber/arduinoplugin/packages/arduino/tools/arm-none-eabi-gcc/7-2017q4/bin/../lib/gcc/arm-none-eabi/7.2.1/../../../../arm-none-eabi/lib/thumb/v7e-m/fpv4-sp/hard\libc_nano.a(lib_a-readr.o)
 .data          0x00000000        0x0 c:/sloeber/arduinoplugin/packages/arduino/tools/arm-none-eabi-gcc/7-2017q4/bin/../lib/gcc/arm-none-eabi/7.2.1/../../../../arm-none-eabi/lib/thumb/v7e-m/fpv4-sp/hard\libc_nano.a(lib_a-readr.o)
 .bss           0x00000000        0x0 c:/sloeber/arduinoplugin/packages/arduino/tools/arm-none-eabi-gcc/7-2017q4/bin/../lib/gcc/arm-none-eabi/7.2.1/../../../../arm-none-eabi/lib/thumb/v7e-m/fpv4-sp/hard\libc_nano.a(lib_a-readr.o)
 .text          0x00000000        0x0 c:/sloeber/arduinoplugin/packages/arduino/tools/arm-none-eabi-gcc/7-2017q4/bin/../lib/gcc/arm-none-eabi/7.2.1/../../../../arm-none-eabi/lib/thumb/v7e-m/fpv4-sp/hard\libnosys.a(close.o)
 .data          0x00000000        0x0 c:/sloeber/arduinoplugin/packages/arduino/tools/arm-none-eabi-gcc/7-2017q4/bin/../lib/gcc/arm-none-eabi/7.2.1/../../../../arm-none-eabi/lib/thumb/v7e-m/fpv4-sp/hard\libnosys.a(close.o)
 .bss           0x00000000        0x0 c:/sloeber/arduinoplugin/packages/arduino/tools/arm-none-eabi-gcc/7-2017q4/bin/../lib/gcc/arm-none-eabi/7.2.1/../../../../arm-none-eabi/lib/thumb/v7e-m/fpv4-sp/hard\libnosys.a(close.o)
 .text          0x00000000        0x0 c:/sloeber/arduinoplugin/packages/arduino/tools/arm-none-eabi-gcc/7-2017q4/bin/../lib/gcc/arm-none-eabi/7.2.1/../../../../arm-none-eabi/lib/thumb/v7e-m/fpv4-sp/hard\libnosys.a(fstat.o)
 .data          0x00000000        0x0 c:/sloeber/arduinoplugin/packages/arduino/tools/arm-none-eabi-gcc/7-2017q4/bin/../lib/gcc/arm-none-eabi/7.2.1/../../../../arm-none-eabi/lib/thumb/v7e-m/fpv4-sp/hard\libnosys.a(fstat.o)
 .bss           0x00000000        0x0 c:/sloeber/arduinoplugin/packages/arduino/tools/arm-none-eabi-gcc/7-2017q4/bin/../lib/gcc/arm-none-eabi/7.2.1/../../../../arm-none-eabi/lib/thumb/v7e-m/fpv4-sp/hard\libnosys.a(fstat.o)
 .text          0x00000000        0x0 c:/sloeber/arduinoplugin/packages/arduino/tools/arm-none-eabi-gcc/7-2017q4/bin/../lib/gcc/arm-none-eabi/7.2.1/../../../../arm-none-eabi/lib/thumb/v7e-m/fpv4-sp/hard\libnosys.a(getpid.o)
 .data          0x00000000        0x0 c:/sloeber/arduinoplugin/packages/arduino/tools/arm-none-eabi-gcc/7-2017q4/bin/../lib/gcc/arm-none-eabi/7.2.1/../../../../arm-none-eabi/lib/thumb/v7e-m/fpv4-sp/hard\libnosys.a(getpid.o)
 .bss           0x00000000        0x0 c:/sloeber/arduinoplugin/packages/arduino/tools/arm-none-eabi-gcc/7-2017q4/bin/../lib/gcc/arm-none-eabi/7.2.1/../../../../arm-none-eabi/lib/thumb/v7e-m/fpv4-sp/hard\libnosys.a(getpid.o)
 .text          0x00000000        0x0 c:/sloeber/arduinoplugin/packages/arduino/tools/arm-none-eabi-gcc/7-2017q4/bin/../lib/gcc/arm-none-eabi/7.2.1/../../../../arm-none-eabi/lib/thumb/v7e-m/fpv4-sp/hard\libnosys.a(isatty.o)
 .data          0x00000000        0x0 c:/sloeber/arduinoplugin/packages/arduino/tools/arm-none-eabi-gcc/7-2017q4/bin/../lib/gcc/arm-none-eabi/7.2.1/../../../../arm-none-eabi/lib/thumb/v7e-m/fpv4-sp/hard\libnosys.a(isatty.o)
 .bss           0x00000000        0x0 c:/sloeber/arduinoplugin/packages/arduino/tools/arm-none-eabi-gcc/7-2017q4/bin/../lib/gcc/arm-none-eabi/7.2.1/../../../../arm-none-eabi/lib/thumb/v7e-m/fpv4-sp/hard\libnosys.a(isatty.o)
 .text          0x00000000        0x0 c:/sloeber/arduinoplugin/packages/arduino/tools/arm-none-eabi-gcc/7-2017q4/bin/../lib/gcc/arm-none-eabi/7.2.1/../../../../arm-none-eabi/lib/thumb/v7e-m/fpv4-sp/hard\libnosys.a(kill.o)
 .data          0x00000000        0x0 c:/sloeber/arduinoplugin/packages/arduino/tools/arm-none-eabi-gcc/7-2017q4/bin/../lib/gcc/arm-none-eabi/7.2.1/../../../../arm-none-eabi/lib/thumb/v7e-m/fpv4-sp/hard\libnosys.a(kill.o)
 .bss           0x00000000        0x0 c:/sloeber/arduinoplugin/packages/arduino/tools/arm-none-eabi-gcc/7-2017q4/bin/../lib/gcc/arm-none-eabi/7.2.1/../../../../arm-none-eabi/lib/thumb/v7e-m/fpv4-sp/hard\libnosys.a(kill.o)
 .text          0x00000000        0x0 c:/sloeber/arduinoplugin/packages/arduino/tools/arm-none-eabi-gcc/7-2017q4/bin/../lib/gcc/arm-none-eabi/7.2.1/../../../../arm-none-eabi/lib/thumb/v7e-m/fpv4-sp/hard\libnosys.a(lseek.o)
 .data          0x00000000        0x0 c:/sloeber/arduinoplugin/packages/arduino/tools/arm-none-eabi-gcc/7-2017q4/bin/../lib/gcc/arm-none-eabi/7.2.1/../../../../arm-none-eabi/lib/thumb/v7e-m/fpv4-sp/hard\libnosys.a(lseek.o)
 .bss           0x00000000        0x0 c:/sloeber/arduinoplugin/packages/arduino/tools/arm-none-eabi-gcc/7-2017q4/bin/../lib/gcc/arm-none-eabi/7.2.1/../../../../arm-none-eabi/lib/thumb/v7e-m/fpv4-sp/hard\libnosys.a(lseek.o)
 .text          0x00000000        0x0 c:/sloeber/arduinoplugin/packages/arduino/tools/arm-none-eabi-gcc/7-2017q4/bin/../lib/gcc/arm-none-eabi/7.2.1/../../../../arm-none-eabi/lib/thumb/v7e-m/fpv4-sp/hard\libnosys.a(read.o)
 .data          0x00000000        0x0 c:/sloeber/arduinoplugin/packages/arduino/tools/arm-none-eabi-gcc/7-2017q4/bin/../lib/gcc/arm-none-eabi/7.2.1/../../../../arm-none-eabi/lib/thumb/v7e-m/fpv4-sp/hard\libnosys.a(read.o)
 .bss           0x00000000        0x0 c:/sloeber/arduinoplugin/packages/arduino/tools/arm-none-eabi-gcc/7-2017q4/bin/../lib/gcc/arm-none-eabi/7.2.1/../../../../arm-none-eabi/lib/thumb/v7e-m/fpv4-sp/hard\libnosys.a(read.o)
 .text          0x00000000        0x0 c:/sloeber/arduinoplugin/packages/arduino/tools/arm-none-eabi-gcc/7-2017q4/bin/../lib/gcc/arm-none-eabi/7.2.1/../../../../arm-none-eabi/lib/thumb/v7e-m/fpv4-sp/hard\libnosys.a(sbrk.o)
 .data          0x00000000        0x0 c:/sloeber/arduinoplugin/packages/arduino/tools/arm-none-eabi-gcc/7-2017q4/bin/../lib/gcc/arm-none-eabi/7.2.1/../../../../arm-none-eabi/lib/thumb/v7e-m/fpv4-sp/hard\libnosys.a(sbrk.o)
 .bss           0x00000000        0x0 c:/sloeber/arduinoplugin/packages/arduino/tools/arm-none-eabi-gcc/7-2017q4/bin/../lib/gcc/arm-none-eabi/7.2.1/../../../../arm-none-eabi/lib/thumb/v7e-m/fpv4-sp/hard\libnosys.a(sbrk.o)
 .text          0x00000000        0x0 c:/sloeber/arduinoplugin/packages/arduino/tools/arm-none-eabi-gcc/7-2017q4/bin/../lib/gcc/arm-none-eabi/7.2.1/../../../../arm-none-eabi/lib/thumb/v7e-m/fpv4-sp/hard\libnosys.a(write.o)
 .data          0x00000000        0x0 c:/sloeber/arduinoplugin/packages/arduino/tools/arm-none-eabi-gcc/7-2017q4/bin/../lib/gcc/arm-none-eabi/7.2.1/../../../../arm-none-eabi/lib/thumb/v7e-m/fpv4-sp/hard\libnosys.a(write.o)
 .bss           0x00000000        0x0 c:/sloeber/arduinoplugin/packages/arduino/tools/arm-none-eabi-gcc/7-2017q4/bin/../lib/gcc/arm-none-eabi/7.2.1/../../../../arm-none-eabi/lib/thumb/v7e-m/fpv4-sp/hard\libnosys.a(write.o)
 .text          0x00000000        0x0 c:/sloeber/arduinoplugin/packages/arduino/tools/arm-none-eabi-gcc/7-2017q4/bin/../lib/gcc/arm-none-eabi/7.2.1/../../../../arm-none-eabi/lib/thumb/v7e-m/fpv4-sp/hard\libnosys.a(_exit.o)
 .data          0x00000000        0x0 c:/sloeber/arduinoplugin/packages/arduino/tools/arm-none-eabi-gcc/7-2017q4/bin/../lib/gcc/arm-none-eabi/7.2.1/../../../../arm-none-eabi/lib/thumb/v7e-m/fpv4-sp/hard\libnosys.a(_exit.o)
 .bss           0x00000000        0x0 c:/sloeber/arduinoplugin/packages/arduino/tools/arm-none-eabi-gcc/7-2017q4/bin/../lib/gcc/arm-none-eabi/7.2.1/../../../../arm-none-eabi/lib/thumb/v7e-m/fpv4-sp/hard\libnosys.a(_exit.o)
 .text          0x00000000        0x0 c:/sloeber/arduinoplugin/packages/arduino/tools/arm-none-eabi-gcc/7-2017q4/bin/../lib/gcc/arm-none-eabi/7.2.1/thumb/v7e-m/fpv4-sp/hard/crtend.o
 .data          0x00000000        0x0 c:/sloeber/arduinoplugin/packages/arduino/tools/arm-none-eabi-gcc/7-2017q4/bin/../lib/gcc/arm-none-eabi/7.2.1/thumb/v7e-m/fpv4-sp/hard/crtend.o
 .bss           0x00000000        0x0 c:/sloeber/arduinoplugin/packages/arduino/tools/arm-none-eabi-gcc/7-2017q4/bin/../lib/gcc/arm-none-eabi/7.2.1/thumb/v7e-m/fpv4-sp/hard/crtend.o
 .text          0x00000000        0x0 c:/sloeber/arduinoplugin/packages/arduino/tools/arm-none-eabi-gcc/7-2017q4/bin/../lib/gcc/arm-none-eabi/7.2.1/thumb/v7e-m/fpv4-sp/hard/crtn.o
 .data          0x00000000        0x0 c:/sloeber/arduinoplugin/packages/arduino/tools/arm-none-eabi-gcc/7-2017q4/bin/../lib/gcc/arm-none-eabi/7.2.1/thumb/v7e-m/fpv4-sp/hard/crtn.o
 .bss           0x00000000        0x0 c:/sloeber/arduinoplugin/packages/arduino/tools/arm-none-eabi-gcc/7-2017q4/bin/../lib/gcc/arm-none-eabi/7.2.1/thumb/v7e-m/fpv4-sp/hard/crtn.o

Memory Configuration

Name             Origin             Length             Attributes
FLASH            0x00004000         0x0007c000         xr
RAM              0x20000000         0x00030000         xrw
*default*        0x00000000         0xffffffff

Linker script and memory map

LOAD c:/sloeber/arduinoplugin/packages/arduino/tools/arm-none-eabi-gcc/7-2017q4/bin/../lib/gcc/arm-none-eabi/7.2.1/thumb/v7e-m/fpv4-sp/hard/crti.o
LOAD c:/sloeber/arduinoplugin/packages/arduino/tools/arm-none-eabi-gcc/7-2017q4/bin/../lib/gcc/arm-none-eabi/7.2.1/thumb/v7e-m/fpv4-sp/hard/crtbegin.o
LOAD c:/sloeber/arduinoplugin/packages/arduino/tools/arm-none-eabi-gcc/7-2017q4/bin/../lib/gcc/arm-none-eabi/7.2.1/../../../../arm-none-eabi/lib/thumb/v7e-m/fpv4-sp/hard/crt0.o
LOAD .\sloeber.ino.cpp.o
LOAD .\libraries\SPI\SPI.cpp.o
LOAD .\libraries\Adafruit_ZeroDMA\Adafruit_ZeroDMA.cpp.o
LOAD .\core\variant\variant.cpp.o
START GROUP
LOAD C:\sloeber\arduinoPlugin\packages\arduino\tools\CMSIS\4.5.0/CMSIS/Lib/GCC/\libarm_cortexM4lf_math.a
LOAD C:/sloeber-workspace/Samd51_DmaTest/Release/arduino.ar
END GROUP
LOAD c:/sloeber/arduinoplugin/packages/arduino/tools/arm-none-eabi-gcc/7-2017q4/bin/../lib/gcc/arm-none-eabi/7.2.1/../../../../arm-none-eabi/lib/thumb/v7e-m/fpv4-sp/hard\libstdc++_nano.a
LOAD c:/sloeber/arduinoplugin/packages/arduino/tools/arm-none-eabi-gcc/7-2017q4/bin/../lib/gcc/arm-none-eabi/7.2.1/../../../../arm-none-eabi/lib/thumb/v7e-m/fpv4-sp/hard\libm.a
START GROUP
LOAD c:/sloeber/arduinoplugin/packages/arduino/tools/arm-none-eabi-gcc/7-2017q4/bin/../lib/gcc/arm-none-eabi/7.2.1/thumb/v7e-m/fpv4-sp/hard\libgcc.a
LOAD c:/sloeber/arduinoplugin/packages/arduino/tools/arm-none-eabi-gcc/7-2017q4/bin/../lib/gcc/arm-none-eabi/7.2.1/../../../../arm-none-eabi/lib/thumb/v7e-m/fpv4-sp/hard\libc_nano.a
END GROUP
START GROUP
LOAD c:/sloeber/arduinoplugin/packages/arduino/tools/arm-none-eabi-gcc/7-2017q4/bin/../lib/gcc/arm-none-eabi/7.2.1/thumb/v7e-m/fpv4-sp/hard\libgcc.a
LOAD c:/sloeber/arduinoplugin/packages/arduino/tools/arm-none-eabi-gcc/7-2017q4/bin/../lib/gcc/arm-none-eabi/7.2.1/../../../../arm-none-eabi/lib/thumb/v7e-m/fpv4-sp/hard\libc_nano.a
LOAD c:/sloeber/arduinoplugin/packages/arduino/tools/arm-none-eabi-gcc/7-2017q4/bin/../lib/gcc/arm-none-eabi/7.2.1/../../../../arm-none-eabi/lib/thumb/v7e-m/fpv4-sp/hard\libnosys.a
END GROUP
START GROUP
LOAD c:/sloeber/arduinoplugin/packages/arduino/tools/arm-none-eabi-gcc/7-2017q4/bin/../lib/gcc/arm-none-eabi/7.2.1/thumb/v7e-m/fpv4-sp/hard\libgcc.a
LOAD c:/sloeber/arduinoplugin/packages/arduino/tools/arm-none-eabi-gcc/7-2017q4/bin/../lib/gcc/arm-none-eabi/7.2.1/../../../../arm-none-eabi/lib/thumb/v7e-m/fpv4-sp/hard\libc_nano.a
LOAD c:/sloeber/arduinoplugin/packages/arduino/tools/arm-none-eabi-gcc/7-2017q4/bin/../lib/gcc/arm-none-eabi/7.2.1/../../../../arm-none-eabi/lib/thumb/v7e-m/fpv4-sp/hard\libnosys.a
END GROUP
LOAD c:/sloeber/arduinoplugin/packages/arduino/tools/arm-none-eabi-gcc/7-2017q4/bin/../lib/gcc/arm-none-eabi/7.2.1/thumb/v7e-m/fpv4-sp/hard/crtend.o
LOAD c:/sloeber/arduinoplugin/packages/arduino/tools/arm-none-eabi-gcc/7-2017q4/bin/../lib/gcc/arm-none-eabi/7.2.1/thumb/v7e-m/fpv4-sp/hard/crtn.o

.text           0x00004000     0x4008
                0x00004000                __text_start__ = .
 *(.sketch_boot)
                0x00004000                . = ALIGN (0x4000)
 *(.isr_vector)
 .isr_vector    0x00004000      0x264 C:/sloeber-workspace/Samd51_DmaTest/Release/arduino.ar(cortex_handlers.c.o)
                0x00004000                exception_table
 *(.text*)
 .text          0x00004264       0x40 c:/sloeber/arduinoplugin/packages/arduino/tools/arm-none-eabi-gcc/7-2017q4/bin/../lib/gcc/arm-none-eabi/7.2.1/thumb/v7e-m/fpv4-sp/hard/crtbegin.o
 .text.setup    0x000042a4       0x80 .\sloeber.ino.cpp.o
                0x000042a4                setup
 .text.loop     0x00004324       0x94 .\sloeber.ino.cpp.o
                0x00004324                loop
 .text._ZN8SPIClassC2EP6SERCOMhhh14SercomSpiTXPad11SercomRXPad
                0x000043b8       0x64 .\libraries\SPI\SPI.cpp.o
                0x000043b8                SPIClass::SPIClass(SERCOM*, unsigned char, unsigned char, unsigned char, SercomSpiTXPad, SercomRXPad)
                0x000043b8                SPIClass::SPIClass(SERCOM*, unsigned char, unsigned char, unsigned char, SercomSpiTXPad, SercomRXPad)
 .text._ZN8SPIClass4initEv
                0x0000441c       0x10 .\libraries\SPI\SPI.cpp.o
                0x0000441c                SPIClass::init()
 .text._ZN8SPIClass6configE11SPISettings
                0x0000442c       0x3a .\libraries\SPI\SPI.cpp.o
                0x0000442c                SPIClass::config(SPISettings)
 *fill*         0x00004466        0x2 
 .text._ZN8SPIClass5beginEv
                0x00004468       0x50 .\libraries\SPI\SPI.cpp.o
                0x00004468                SPIClass::begin()
 .text._ZN8SPIClass16beginTransactionE11SPISettings
                0x000044b8       0x3c .\libraries\SPI\SPI.cpp.o
                0x000044b8                SPIClass::beginTransaction(SPISettings)
 .text._ZN8SPIClass14endTransactionEv
                0x000044f4       0x20 .\libraries\SPI\SPI.cpp.o
                0x000044f4                SPIClass::endTransaction()
 .text._ZN8SPIClass15waitForTransferEv
                0x00004514        0xa .\libraries\SPI\SPI.cpp.o
                0x00004514                SPIClass::waitForTransfer()
 .text._ZN8SPIClass8transferEPKvPvmb
                0x0000451e       0x22 .\libraries\SPI\SPI.cpp.o
                0x0000451e                SPIClass::transfer(void const*, void*, unsigned long, bool)
 .text.startup._GLOBAL__sub_I__ZN8SPIClassC2EP6SERCOMhhh14SercomSpiTXPad11SercomRXPad
                0x00004540       0x3c .\libraries\SPI\SPI.cpp.o
 .text._ZL22cpu_irq_enter_criticalv
                0x0000457c       0x2c .\libraries\Adafruit_ZeroDMA\Adafruit_ZeroDMA.cpp.o
 .text._ZL22cpu_irq_leave_criticalv
                0x000045a8       0x28 .\libraries\Adafruit_ZeroDMA\Adafruit_ZeroDMA.cpp.o
 .text._ZN16Adafruit_ZeroDMAC2Ev
                0x000045d0       0x1a .\libraries\Adafruit_ZeroDMA\Adafruit_ZeroDMA.cpp.o
                0x000045d0                Adafruit_ZeroDMA::Adafruit_ZeroDMA()
                0x000045d0                Adafruit_ZeroDMA::Adafruit_ZeroDMA()
 *fill*         0x000045ea        0x2 
 .text._ZN16Adafruit_ZeroDMA11_IRQhandlerEh
                0x000045ec       0x68 .\libraries\Adafruit_ZeroDMA\Adafruit_ZeroDMA.cpp.o
                0x000045ec                Adafruit_ZeroDMA::_IRQhandler(unsigned char)
 .text.DMAC_0_Handler
                0x00004654       0x2c .\libraries\Adafruit_ZeroDMA\Adafruit_ZeroDMA.cpp.o
                0x00004654                DMAC_4_Handler
                0x00004654                DMAC_2_Handler
                0x00004654                DMAC_1_Handler
                0x00004654                DMAC_3_Handler
                0x00004654                DMAC_0_Handler
 .text.SERCOM3_0_Handler
                0x00004680        0xc .\core\variant\variant.cpp.o
                0x00004680                SERCOM3_0_Handler
 .text.SERCOM3_1_Handler
                0x0000468c        0x4 .\core\variant\variant.cpp.o
                0x0000468c                SERCOM3_1_Handler
 .text.SERCOM3_2_Handler
                0x00004690        0x4 .\core\variant\variant.cpp.o
                0x00004690                SERCOM3_2_Handler
 .text.SERCOM3_3_Handler
                0x00004694        0x4 .\core\variant\variant.cpp.o
                0x00004694                SERCOM3_3_Handler
 .text.startup._GLOBAL__sub_I_g_APinDescription
                0x00004698       0x7c .\core\variant\variant.cpp.o
 .text._ZN7Serial_17availableForWriteEv
                0x00004714        0x4 C:/sloeber-workspace/Samd51_DmaTest/Release/arduino.ar(CDC.cpp.o)
                0x00004714                Serial_::availableForWrite()
 .text._ZN7Serial_5writeEh
                0x00004718       0x16 C:/sloeber-workspace/Samd51_DmaTest/Release/arduino.ar(CDC.cpp.o)
                0x00004718                Serial_::write(unsigned char)
 .text._ZN7Serial_9availableEv
                0x0000472e        0x8 C:/sloeber-workspace/Samd51_DmaTest/Release/arduino.ar(CDC.cpp.o)
                0x0000472e                Serial_::available()
 .text._ZN7Serial_5flushEv
                0x00004736        0x8 C:/sloeber-workspace/Samd51_DmaTest/Release/arduino.ar(CDC.cpp.o)
                0x00004736                Serial_::flush()
 *fill*         0x0000473e        0x2 
 .text._ZN7Serial_5writeEPKhj
                0x00004740       0x28 C:/sloeber-workspace/Samd51_DmaTest/Release/arduino.ar(CDC.cpp.o)
                0x00004740                Serial_::write(unsigned char const*, unsigned int)
 .text._ZN7Serial_4peekEv
                0x00004768       0x1c C:/sloeber-workspace/Samd51_DmaTest/Release/arduino.ar(CDC.cpp.o)
                0x00004768                Serial_::peek()
 .text._ZN7Serial_4readEv
                0x00004784       0x20 C:/sloeber-workspace/Samd51_DmaTest/Release/arduino.ar(CDC.cpp.o)
                0x00004784                Serial_::read()
 .text._Z16CDC_GetInterfacePh
                0x000047a4       0x18 C:/sloeber-workspace/Samd51_DmaTest/Release/arduino.ar(CDC.cpp.o)
                0x000047a4                CDC_GetInterface(unsigned char*)
 .text._Z9CDC_SetupR8USBSetup
                0x000047bc       0x74 C:/sloeber-workspace/Samd51_DmaTest/Release/arduino.ar(CDC.cpp.o)
                0x000047bc                CDC_Setup(USBSetup&)
 .text._ZN7Serial_5beginEm
                0x00004830        0x2 C:/sloeber-workspace/Samd51_DmaTest/Release/arduino.ar(CDC.cpp.o)
                0x00004830                Serial_::begin(unsigned long)
 *fill*         0x00004832        0x2 
 .text.startup._GLOBAL__sub_I__Z17_CDC_GetInterfacev
                0x00004834       0x24 C:/sloeber-workspace/Samd51_DmaTest/Release/arduino.ar(CDC.cpp.o)
 .text._ZN26DoubleBufferedEPOutHandler4initEv
                0x00004858        0x2 C:/sloeber-workspace/Samd51_DmaTest/Release/arduino.ar(USBCore.cpp.o)
                0x00004858                DoubleBufferedEPOutHandler::init()
 .text._ZL5utox8mPc
                0x0000485a       0x22 C:/sloeber-workspace/Samd51_DmaTest/Release/arduino.ar(USBCore.cpp.o)
 .text._ZN26DoubleBufferedEPOutHandlerD2Ev
                0x0000487c       0x14 C:/sloeber-workspace/Samd51_DmaTest/Release/arduino.ar(USBCore.cpp.o)
                0x0000487c                DoubleBufferedEPOutHandler::~DoubleBufferedEPOutHandler()
                0x0000487c                DoubleBufferedEPOutHandler::~DoubleBufferedEPOutHandler()
 .text._ZN26DoubleBufferedEPOutHandlerD0Ev
                0x00004890       0x12 C:/sloeber-workspace/Samd51_DmaTest/Release/arduino.ar(USBCore.cpp.o)
                0x00004890                DoubleBufferedEPOutHandler::~DoubleBufferedEPOutHandler()
 *fill*         0x000048a2        0x2 
 .text._ZN14USBDeviceClass6initEPEmm.part.5
                0x000048a4       0xc4 C:/sloeber-workspace/Samd51_DmaTest/Release/arduino.ar(USBCore.cpp.o)
 .text._ZN7__GuardC2Ev
                0x00004968        0xe C:/sloeber-workspace/Samd51_DmaTest/Release/arduino.ar(USBCore.cpp.o)
                0x00004968                __Guard::__Guard()
                0x00004968                __Guard::__Guard()
 .text._ZN7__GuardD2Ev
                0x00004976        0xc C:/sloeber-workspace/Samd51_DmaTest/Release/arduino.ar(USBCore.cpp.o)
                0x00004976                __Guard::~__Guard()
                0x00004976                __Guard::~__Guard()
 .text._ZNK26DoubleBufferedEPOutHandler9availableEv
                0x00004982       0x5e C:/sloeber-workspace/Samd51_DmaTest/Release/arduino.ar(USBCore.cpp.o)
                0x00004982                DoubleBufferedEPOutHandler::available() const
 .text._ZN26DoubleBufferedEPOutHandler7releaseEv
                0x000049e0       0x4e C:/sloeber-workspace/Samd51_DmaTest/Release/arduino.ar(USBCore.cpp.o)
                0x000049e0                DoubleBufferedEPOutHandler::release()
 .text._ZN26DoubleBufferedEPOutHandler4recvEPvm
                0x00004a2e      0x116 C:/sloeber-workspace/Samd51_DmaTest/Release/arduino.ar(USBCore.cpp.o)
                0x00004a2e                DoubleBufferedEPOutHandler::recv(void*, unsigned long)
 .text._ZN26DoubleBufferedEPOutHandler14handleEndpointEv
                0x00004b44       0xb8 C:/sloeber-workspace/Samd51_DmaTest/Release/arduino.ar(USBCore.cpp.o)
                0x00004b44                DoubleBufferedEPOutHandler::handleEndpoint()
 .text._ZN14USBDeviceClass14SendInterfacesEPm
                0x00004bfc       0x30 C:/sloeber-workspace/Samd51_DmaTest/Release/arduino.ar(USBCore.cpp.o)
                0x00004bfc                USBDeviceClass::SendInterfaces(unsigned long*)
 .text._ZN14USBDeviceClass14handleEndpointEh
                0x00004c2c       0x3c C:/sloeber-workspace/Samd51_DmaTest/Release/arduino.ar(USBCore.cpp.o)
                0x00004c2c                USBDeviceClass::handleEndpoint(unsigned char)
 .text._ZN14USBDeviceClass4initEv
                0x00004c68      0x124 C:/sloeber-workspace/Samd51_DmaTest/Release/arduino.ar(USBCore.cpp.o)
                0x00004c68                USBDeviceClass::init()
 .text._ZN14USBDeviceClass6attachEv
                0x00004d8c       0x30 C:/sloeber-workspace/Samd51_DmaTest/Release/arduino.ar(USBCore.cpp.o)
                0x00004d8c                USBDeviceClass::attach()
 .text._ZN14USBDeviceClass10setAddressEm
                0x00004dbc       0x40 C:/sloeber-workspace/Samd51_DmaTest/Release/arduino.ar(USBCore.cpp.o)
                0x00004dbc                USBDeviceClass::setAddress(unsigned long)
 .text._ZN14USBDeviceClass25handleClassInterfaceSetupER8USBSetup
                0x00004dfc       0x40 C:/sloeber-workspace/Samd51_DmaTest/Release/arduino.ar(USBCore.cpp.o)
                0x00004dfc                USBDeviceClass::handleClassInterfaceSetup(USBSetup&)
 .text._ZN14USBDeviceClass6initEPEmm
                0x00004e3c       0xe0 C:/sloeber-workspace/Samd51_DmaTest/Release/arduino.ar(USBCore.cpp.o)
                0x00004e3c                USBDeviceClass::initEP(unsigned long, unsigned long)
 .text._ZN14USBDeviceClass13initEndpointsEv
                0x00004f1c       0x20 C:/sloeber-workspace/Samd51_DmaTest/Release/arduino.ar(USBCore.cpp.o)
                0x00004f1c                USBDeviceClass::initEndpoints()
 .text._ZN14USBDeviceClass9availableEm
                0x00004f3c       0x28 C:/sloeber-workspace/Samd51_DmaTest/Release/arduino.ar(USBCore.cpp.o)
                0x00004f3c                USBDeviceClass::available(unsigned long)
 .text._ZN14USBDeviceClass5flushEm
                0x00004f64       0x28 C:/sloeber-workspace/Samd51_DmaTest/Release/arduino.ar(USBCore.cpp.o)
                0x00004f64                USBDeviceClass::flush(unsigned long)
 .text._ZN14USBDeviceClass14armRecvCtrlOUTEm
                0x00004f8c       0x54 C:/sloeber-workspace/Samd51_DmaTest/Release/arduino.ar(USBCore.cpp.o)
                0x00004f8c                USBDeviceClass::armRecvCtrlOUT(unsigned long)
 .text._ZN14USBDeviceClass11recvControlEPvm
                0x00004fe0       0x3c C:/sloeber-workspace/Samd51_DmaTest/Release/arduino.ar(USBCore.cpp.o)
                0x00004fe0                USBDeviceClass::recvControl(void*, unsigned long)
 .text._ZN14USBDeviceClass7armRecvEm
                0x0000501c       0x34 C:/sloeber-workspace/Samd51_DmaTest/Release/arduino.ar(USBCore.cpp.o)
                0x0000501c                USBDeviceClass::armRecv(unsigned long)
 .text._ZN14USBDeviceClass4recvEmPvm
                0x00005050       0xd8 C:/sloeber-workspace/Samd51_DmaTest/Release/arduino.ar(USBCore.cpp.o)
                0x00005050                USBDeviceClass::recv(unsigned long, void*, unsigned long)
 .text._ZN14USBDeviceClass4recvEm
                0x00005128       0x1e C:/sloeber-workspace/Samd51_DmaTest/Release/arduino.ar(USBCore.cpp.o)
                0x00005128                USBDeviceClass::recv(unsigned long)
 *fill*         0x00005146        0x2 
 .text._ZN14USBDeviceClass4sendEmPKvm
                0x00005148      0x108 C:/sloeber-workspace/Samd51_DmaTest/Release/arduino.ar(USBCore.cpp.o)
                0x00005148                USBDeviceClass::send(unsigned long, void const*, unsigned long)
 .text._ZN14USBDeviceClass7armSendEmPKvm
                0x00005250       0x3c C:/sloeber-workspace/Samd51_DmaTest/Release/arduino.ar(USBCore.cpp.o)
                0x00005250                USBDeviceClass::armSend(unsigned long, void const*, unsigned long)
 .text._ZN14USBDeviceClass11sendControlEPKvm
                0x0000528c       0x58 C:/sloeber-workspace/Samd51_DmaTest/Release/arduino.ar(USBCore.cpp.o)
                0x0000528c                USBDeviceClass::sendControl(void const*, unsigned long)
 .text._ZN14USBDeviceClass20sendStringDescriptorEPKhh
                0x000052e4       0x6c C:/sloeber-workspace/Samd51_DmaTest/Release/arduino.ar(USBCore.cpp.o)
                0x000052e4                USBDeviceClass::sendStringDescriptor(unsigned char const*, unsigned char)
 .text._ZN14USBDeviceClass17sendConfigurationEm
                0x00005350       0xa0 C:/sloeber-workspace/Samd51_DmaTest/Release/arduino.ar(USBCore.cpp.o)
                0x00005350                USBDeviceClass::sendConfiguration(unsigned long)
 .text._ZN14USBDeviceClass14sendDescriptorER8USBSetup
                0x000053f0       0xe8 C:/sloeber-workspace/Samd51_DmaTest/Release/arduino.ar(USBCore.cpp.o)
                0x000053f0                USBDeviceClass::sendDescriptor(USBSetup&)
 .text._ZN14USBDeviceClass19handleStandardSetupER8USBSetup
                0x000054d8      0x114 C:/sloeber-workspace/Samd51_DmaTest/Release/arduino.ar(USBCore.cpp.o)
                0x000054d8                USBDeviceClass::handleStandardSetup(USBSetup&)
 .text._ZN14USBDeviceClass10ISRHandlerEv
                0x000055ec      0x158 C:/sloeber-workspace/Samd51_DmaTest/Release/arduino.ar(USBCore.cpp.o)
                0x000055ec                USBDeviceClass::ISRHandler()
 .text.UDD_Handler
                0x00005744        0xc C:/sloeber-workspace/Samd51_DmaTest/Release/arduino.ar(USBCore.cpp.o)
                0x00005744                UDD_Handler
 .text.startup._GLOBAL__sub_I_usbd
                0x00005750       0x10 C:/sloeber-workspace/Samd51_DmaTest/Release/arduino.ar(USBCore.cpp.o)
 .text._ZN5Print5writeEPKhj
                0x00005760       0x2c C:/sloeber-workspace/Samd51_DmaTest/Release/arduino.ar(Print.cpp.o)
                0x00005760                Print::write(unsigned char const*, unsigned int)
 .text._ZN5Print5writeEPKc.part.2
                0x0000578c       0x1c C:/sloeber-workspace/Samd51_DmaTest/Release/arduino.ar(Print.cpp.o)
 .text._ZN5Print5writeEPKc
                0x000057a8        0xa C:/sloeber-workspace/Samd51_DmaTest/Release/arduino.ar(Print.cpp.o)
                0x000057a8                Print::write(char const*)
 *fill*         0x000057b2        0x2 
 .text._ZN5Print7printlnEv
                0x000057b4        0xc C:/sloeber-workspace/Samd51_DmaTest/Release/arduino.ar(Print.cpp.o)
                0x000057b4                Print::println()
 .text._ZN5Print7printlnEPKc
                0x000057c0       0x14 C:/sloeber-workspace/Samd51_DmaTest/Release/arduino.ar(Print.cpp.o)
                0x000057c0                Print::println(char const*)
 .text.initiateReset
                0x000057d4        0xc C:/sloeber-workspace/Samd51_DmaTest/Release/arduino.ar(Reset.cpp.o)
                0x000057d4                initiateReset
 .text.cancelReset
                0x000057e0       0x10 C:/sloeber-workspace/Samd51_DmaTest/Release/arduino.ar(Reset.cpp.o)
                0x000057e0                cancelReset
 .text.tickReset
                0x000057f0       0x48 C:/sloeber-workspace/Samd51_DmaTest/Release/arduino.ar(Reset.cpp.o)
                0x000057f0                tickReset
 .text._ZN6SERCOMC2EP6Sercom
                0x00005838        0x8 C:/sloeber-workspace/Samd51_DmaTest/Release/arduino.ar(SERCOM.cpp.o)
                0x00005838                SERCOM::SERCOM(Sercom*)
                0x00005838                SERCOM::SERCOM(Sercom*)
 .text._ZN6SERCOM9initFrameE18SercomUartCharSize15SercomDataOrder16SercomParityMode19SercomNumberStopBit
                0x00005840       0x38 C:/sloeber-workspace/Samd51_DmaTest/Release/arduino.ar(SERCOM.cpp.o)
                0x00005840                SERCOM::initFrame(SercomUartCharSize, SercomDataOrder, SercomParityMode, SercomNumberStopBit)
 .text._ZN6SERCOM8initPadsE15SercomUartTXPad11SercomRXPad
                0x00005878       0x24 C:/sloeber-workspace/Samd51_DmaTest/Release/arduino.ar(SERCOM.cpp.o)
                0x00005878                SERCOM::initPads(SercomUartTXPad, SercomRXPad)
 .text._ZN6SERCOM9resetUARTEv
                0x0000589c       0x1a C:/sloeber-workspace/Samd51_DmaTest/Release/arduino.ar(SERCOM.cpp.o)
                0x0000589c                SERCOM::resetUART()
 .text._ZN6SERCOM10enableUARTEv
                0x000058b6       0x14 C:/sloeber-workspace/Samd51_DmaTest/Release/arduino.ar(SERCOM.cpp.o)
                0x000058b6                SERCOM::enableUART()
 .text._ZN6SERCOM9flushUARTEv
                0x000058ca       0x14 C:/sloeber-workspace/Samd51_DmaTest/Release/arduino.ar(SERCOM.cpp.o)
                0x000058ca                SERCOM::flushUART()
 .text._ZN6SERCOM15clearStatusUARTEv
                0x000058de        0x8 C:/sloeber-workspace/Samd51_DmaTest/Release/arduino.ar(SERCOM.cpp.o)
                0x000058de                SERCOM::clearStatusUART()
 .text._ZN6SERCOM17availableDataUARTEv
                0x000058e6        0xa C:/sloeber-workspace/Samd51_DmaTest/Release/arduino.ar(SERCOM.cpp.o)
                0x000058e6                SERCOM::availableDataUART()
 .text._ZN6SERCOM11isUARTErrorEv
                0x000058f0        0x8 C:/sloeber-workspace/Samd51_DmaTest/Release/arduino.ar(SERCOM.cpp.o)
                0x000058f0                SERCOM::isUARTError()
 .text._ZN6SERCOM20acknowledgeUARTErrorEv
                0x000058f8        0xc C:/sloeber-workspace/Samd51_DmaTest/Release/arduino.ar(SERCOM.cpp.o)
                0x000058f8                SERCOM::acknowledgeUARTError()
 .text._ZN6SERCOM16isFrameErrorUARTEv
                0x00005904        0xa C:/sloeber-workspace/Samd51_DmaTest/Release/arduino.ar(SERCOM.cpp.o)
                0x00005904                SERCOM::isFrameErrorUART()
 .text._ZN6SERCOM19clearFrameErrorUARTEv
                0x0000590e        0xc C:/sloeber-workspace/Samd51_DmaTest/Release/arduino.ar(SERCOM.cpp.o)
                0x0000590e                SERCOM::clearFrameErrorUART()
 .text._ZN6SERCOM23isDataRegisterEmptyUARTEv
                0x0000591a        0xa C:/sloeber-workspace/Samd51_DmaTest/Release/arduino.ar(SERCOM.cpp.o)
                0x0000591a                SERCOM::isDataRegisterEmptyUART()
 .text._ZN6SERCOM12readDataUARTEv
                0x00005924        0x8 C:/sloeber-workspace/Samd51_DmaTest/Release/arduino.ar(SERCOM.cpp.o)
                0x00005924                SERCOM::readDataUART()
 .text._ZN6SERCOM13writeDataUARTEh
                0x0000592c        0xe C:/sloeber-workspace/Samd51_DmaTest/Release/arduino.ar(SERCOM.cpp.o)
                0x0000592c                SERCOM::writeDataUART(unsigned char)
 .text._ZN6SERCOM36enableDataRegisterEmptyInterruptUARTEv
                0x0000593a        0x8 C:/sloeber-workspace/Samd51_DmaTest/Release/arduino.ar(SERCOM.cpp.o)
                0x0000593a                SERCOM::enableDataRegisterEmptyInterruptUART()
 .text._ZN6SERCOM37disableDataRegisterEmptyInterruptUARTEv
                0x00005942        0x8 C:/sloeber-workspace/Samd51_DmaTest/Release/arduino.ar(SERCOM.cpp.o)
                0x00005942                SERCOM::disableDataRegisterEmptyInterruptUART()
 .text._ZN6SERCOM8resetSPIEv
                0x0000594a       0x1a C:/sloeber-workspace/Samd51_DmaTest/Release/arduino.ar(SERCOM.cpp.o)
                0x0000594a                SERCOM::resetSPI()
 .text._ZN6SERCOM9enableSPIEv
                0x00005964       0x14 C:/sloeber-workspace/Samd51_DmaTest/Release/arduino.ar(SERCOM.cpp.o)
                0x00005964                SERCOM::enableSPI()
 .text._ZN6SERCOM10disableSPIEv
                0x00005978       0x16 C:/sloeber-workspace/Samd51_DmaTest/Release/arduino.ar(SERCOM.cpp.o)
                0x00005978                SERCOM::disableSPI()
 .text._ZN6SERCOM28calculateBaudrateSynchronousEm
                0x0000598e       0x14 C:/sloeber-workspace/Samd51_DmaTest/Release/arduino.ar(SERCOM.cpp.o)
                0x0000598e                SERCOM::calculateBaudrateSynchronous(unsigned long)
 .text._ZN6SERCOM12initSPIClockE18SercomSpiClockModem
                0x000059a2       0x24 C:/sloeber-workspace/Samd51_DmaTest/Release/arduino.ar(SERCOM.cpp.o)
                0x000059a2                SERCOM::initSPIClock(SercomSpiClockMode, unsigned long)
 *fill*         0x000059c6        0x2 
 .text._ZN6SERCOM14getSercomIndexEv
                0x000059c8       0x58 C:/sloeber-workspace/Samd51_DmaTest/Release/arduino.ar(SERCOM.cpp.o)
                0x000059c8                SERCOM::getSercomIndex()
 .text._ZN6SERCOM14setClockSourceEa17SercomClockSourceb
                0x00005a20       0xc0 C:/sloeber-workspace/Samd51_DmaTest/Release/arduino.ar(SERCOM.cpp.o)
                0x00005a20                SERCOM::setClockSource(signed char, SercomClockSource, bool)
 .text._ZN6SERCOM13initClockNVICEv
                0x00005ae0       0x98 C:/sloeber-workspace/Samd51_DmaTest/Release/arduino.ar(SERCOM.cpp.o)
                0x00005ae0                SERCOM::initClockNVIC()
 .text._ZN6SERCOM8initUARTE14SercomUartMode20SercomUartSampleRatem
                0x00005b78       0x64 C:/sloeber-workspace/Samd51_DmaTest/Release/arduino.ar(SERCOM.cpp.o)
                0x00005b78                SERCOM::initUART(SercomUartMode, SercomUartSampleRate, unsigned long)
 .text._ZN6SERCOM7initSPIE14SercomSpiTXPad11SercomRXPad17SercomSpiCharSize15SercomDataOrder
                0x00005bdc       0x46 C:/sloeber-workspace/Samd51_DmaTest/Release/arduino.ar(SERCOM.cpp.o)
                0x00005bdc                SERCOM::initSPI(SercomSpiTXPad, SercomRXPad, SercomSpiCharSize, SercomDataOrder)
 .text._ZN4UartcvbEv
                0x00005c22        0x4 C:/sloeber-workspace/Samd51_DmaTest/Release/arduino.ar(Uart.cpp.o)
                0x00005c22                Uart::operator bool()
 .text._ZN4Uart5beginEm
                0x00005c26        0xa C:/sloeber-workspace/Samd51_DmaTest/Release/arduino.ar(Uart.cpp.o)
                0x00005c26                Uart::begin(unsigned long)
 .text._ZN4Uart4peekEv
                0x00005c30       0x1a C:/sloeber-workspace/Samd51_DmaTest/Release/arduino.ar(Uart.cpp.o)
                0x00005c30                Uart::peek()
 .text._ZN4Uart3endEv
                0x00005c4a       0x1e C:/sloeber-workspace/Samd51_DmaTest/Release/arduino.ar(Uart.cpp.o)
                0x00005c4a                Uart::end()
 .text._ZN4Uart16extractNbStopBitEt
                0x00005c68        0xe C:/sloeber-workspace/Samd51_DmaTest/Release/arduino.ar(Uart.cpp.o)
                0x00005c68                Uart::extractNbStopBit(unsigned short)
 .text._ZN4Uart15extractCharSizeEt
                0x00005c76       0x24 C:/sloeber-workspace/Samd51_DmaTest/Release/arduino.ar(Uart.cpp.o)
                0x00005c76                Uart::extractCharSize(unsigned short)
 .text._ZN4Uart13extractParityEt
                0x00005c9a       0x16 C:/sloeber-workspace/Samd51_DmaTest/Release/arduino.ar(Uart.cpp.o)
                0x00005c9a                Uart::extractParity(unsigned short)
 .text._ZN4Uart5beginEmt
                0x00005cb0       0xe0 C:/sloeber-workspace/Samd51_DmaTest/Release/arduino.ar(Uart.cpp.o)
                0x00005cb0                Uart::begin(unsigned long, unsigned short)
 .text._ZN11RingBufferNILi256EEC2Ev
                0x00005d90       0x18 C:/sloeber-workspace/Samd51_DmaTest/Release/arduino.ar(Uart.cpp.o)
                0x00005d90                RingBufferN<256>::RingBufferN()
                0x00005d90                RingBufferN<256>::RingBufferN()
 .text._ZN4UartC2EP6SERCOMhh11SercomRXPad15SercomUartTXPad
                0x00005da8       0x54 C:/sloeber-workspace/Samd51_DmaTest/Release/arduino.ar(Uart.cpp.o)
                0x00005da8                Uart::Uart(SERCOM*, unsigned char, unsigned char, SercomRXPad, SercomUartTXPad)
                0x00005da8                Uart::Uart(SERCOM*, unsigned char, unsigned char, SercomRXPad, SercomUartTXPad)
 .text._ZN11RingBufferNILi256EE9availableEv
                0x00005dfc       0x12 C:/sloeber-workspace/Samd51_DmaTest/Release/arduino.ar(Uart.cpp.o)
                0x00005dfc                RingBufferN<256>::available()
 .text._ZN4Uart5flushEv
                0x00005e0e       0x1c C:/sloeber-workspace/Samd51_DmaTest/Release/arduino.ar(Uart.cpp.o)
                0x00005e0e                Uart::flush()
 .text._ZN4Uart9availableEv
                0x00005e2a        0xa C:/sloeber-workspace/Samd51_DmaTest/Release/arduino.ar(Uart.cpp.o)
                0x00005e2a                Uart::available()
 .text._ZN11RingBufferNILi256EE17availableForStoreEv
                0x00005e34       0x2c C:/sloeber-workspace/Samd51_DmaTest/Release/arduino.ar(Uart.cpp.o)
                0x00005e34                RingBufferN<256>::availableForStore()
 .text._ZN4Uart17availableForWriteEv
                0x00005e60        0xc C:/sloeber-workspace/Samd51_DmaTest/Release/arduino.ar(Uart.cpp.o)
                0x00005e60                Uart::availableForWrite()
 .text._ZN4Uart10IrqHandlerEv
                0x00005e6c       0xc4 C:/sloeber-workspace/Samd51_DmaTest/Release/arduino.ar(Uart.cpp.o)
                0x00005e6c                Uart::IrqHandler()
 .text._ZN4Uart5writeEh
                0x00005f30       0xac C:/sloeber-workspace/Samd51_DmaTest/Release/arduino.ar(Uart.cpp.o)
                0x00005f30                Uart::write(unsigned char)
 .text._ZN4Uart4readEv
                0x00005fdc       0x4a C:/sloeber-workspace/Samd51_DmaTest/Release/arduino.ar(Uart.cpp.o)
                0x00005fdc                Uart::read()
 .text.Dummy_Handler
                0x00006026        0x2 C:/sloeber-workspace/Samd51_DmaTest/Release/arduino.ar(cortex_handlers.c.o)
                0x00006026                EIC_5_Handler
                0x00006026                SERCOM0_2_Handler
                0x00006026                DebugMon_Handler
                0x00006026                EIC_13_Handler
                0x00006026                EVSYS_0_Handler
                0x00006026                TCC1_3_Handler
                0x00006026                DAC_3_Handler
                0x00006026                TRNG_Handler
                0x00006026                HardFault_Handler
                0x00006026                PDEC_2_Handler
                0x00006026                EIC_4_Handler
                0x00006026                AC_Handler
                0x00006026                TCC2_3_Handler
                0x00006026                PendSV_Handler
                0x00006026                NMI_Handler
                0x00006026                TC7_Handler
                0x00006026                ADC1_1_Handler
                0x00006026                EVSYS_3_Handler
                0x00006026                PDEC_0_Handler
                0x00006026                QSPI_Handler
                0x00006026                TCC0_0_Handler
                0x00006026                EIC_3_Handler
                0x00006026                TAL_0_Handler
                0x00006026                DAC_2_Handler
                0x00006026                SERCOM0_0_Handler
                0x00006026                RTC_Handler
                0x00006026                UsageFault_Handler
                0x00006026                SERCOM4_0_Handler
                0x00006026                EIC_10_Handler
                0x00006026                SERCOM0_3_Handler
                0x00006026                EIC_11_Handler
                0x00006026                EIC_9_Handler
                0x00006026                OSC32KCTRL_Handler
                0x00006026                TCC2_1_Handler
                0x00006026                SUPC_1_Handler
                0x00006026                TCC0_5_Handler
                0x00006026                TCC0_6_Handler
                0x00006026                SERCOM6_2_Handler
                0x00006026                EVSYS_1_Handler
                0x00006026                TCC1_4_Handler
                0x00006026                TC6_Handler
                0x00006026                WDT_Handler
                0x00006026                EIC_8_Handler
                0x00006026                EIC_15_Handler
                0x00006026                SERCOM6_0_Handler
                0x00006026                SERCOM5_0_Handler
                0x00006026                TC4_Handler
                0x00006026                TC1_Handler
                0x00006026                OSCCTRL_4_Handler
                0x00006026                SERCOM4_3_Handler
                0x00006026                EIC_12_Handler
                0x00006026                TCC4_2_Handler
                0x00006026                PAC_Handler
                0x00006026                TCC1_0_Handler
                0x00006026                OSCCTRL_0_Handler
                0x00006026                EIC_0_Handler
                0x00006026                OSCCTRL_3_Handler
                0x00006026                SERCOM4_1_Handler
                0x00006026                TC3_Handler
                0x00006026                Dummy_Handler
                0x00006026                TCC3_0_Handler
                0x00006026                TCC2_2_Handler
                0x00006026                SERCOM5_1_Handler
                0x00006026                TCC1_1_Handler
                0x00006026                ADC0_0_Handler
                0x00006026                SERCOM0_1_Handler
                0x00006026                OSCCTRL_2_Handler
                0x00006026                ADC1_0_Handler
                0x00006026                TCC1_2_Handler
                0x00006026                SERCOM7_1_Handler
                0x00006026                PM_Handler
                0x00006026                SERCOM6_3_Handler
                0x00006026                SERCOM2_3_Handler
                0x00006026                DAC_4_Handler
                0x00006026                TCC3_2_Handler
                0x00006026                SERCOM7_0_Handler
                0x00006026                TCC0_2_Handler
                0x00006026                TCC4_0_Handler
                0x00006026                SERCOM7_3_Handler
                0x00006026                SDHC1_Handler
                0x00006026                SERCOM7_2_Handler
                0x00006026                TCC2_0_Handler
                0x00006026                PDEC_1_Handler
                0x00006026                MemManage_Handler
                0x00006026                TCC4_1_Handler
                0x00006026                SERCOM5_3_Handler
                0x00006026                SVC_Handler
                0x00006026                SERCOM6_1_Handler
                0x00006026                SDHC0_Handler
                0x00006026                SERCOM1_1_Handler
                0x00006026                I2S_Handler
                0x00006026                EIC_2_Handler
                0x00006026                PCC_Handler
                0x00006026                DAC_0_Handler
                0x00006026                TCC0_1_Handler
                0x00006026                SERCOM1_3_Handler
                0x00006026                EIC_6_Handler
                0x00006026                OSCCTRL_1_Handler
                0x00006026                SERCOM1_0_Handler
                0x00006026                PUKCC_Handler
                0x00006026                SERCOM2_1_Handler
                0x00006026                SERCOM1_2_Handler
                0x00006026                EIC_1_Handler
                0x00006026                SERCOM4_2_Handler
                0x00006026                EVSYS_4_Handler
                0x00006026                EIC_7_Handler
                0x00006026                NVMCTRL_1_Handler
                0x00006026                SERCOM5_2_Handler
                0x00006026                ADC0_1_Handler
                0x00006026                SERCOM2_2_Handler
                0x00006026                TCC3_1_Handler
                0x00006026                EIC_14_Handler
                0x00006026                DAC_1_Handler
                0x00006026                NVMCTRL_0_Handler
                0x00006026                TAL_1_Handler
                0x00006026                MCLK_Handler
                0x00006026                EVSYS_2_Handler
                0x00006026                SUPC_0_Handler
                0x00006026                BusFault_Handler
                0x00006026                FREQM_Handler
                0x00006026                TC0_Handler
                0x00006026                TCC0_3_Handler
                0x00006026                TCC0_4_Handler
                0x00006026                RAMECC_Handler
                0x00006026                TC5_Handler
                0x00006026                SERCOM2_0_Handler
                0x00006026                AES_Handler
                0x00006026                ICM_Handler
 .text.USB_0_Handler
                0x00006028       0x10 C:/sloeber-workspace/Samd51_DmaTest/Release/arduino.ar(cortex_handlers.c.o)
                0x00006028                USB_0_Handler
 .text.Reset_Handler
                0x00006038       0x70 C:/sloeber-workspace/Samd51_DmaTest/Release/arduino.ar(cortex_handlers.c.o)
                0x00006038                Reset_Handler
 .text.SysTick_Handler
                0x000060a8       0x12 C:/sloeber-workspace/Samd51_DmaTest/Release/arduino.ar(cortex_handlers.c.o)
                0x000060a8                SysTick_Handler
 .text.USB_1_Handler
                0x000060ba        0x4 C:/sloeber-workspace/Samd51_DmaTest/Release/arduino.ar(cortex_handlers.c.o)
                0x000060ba                USB_1_Handler
 .text.USB_2_Handler
                0x000060be        0x4 C:/sloeber-workspace/Samd51_DmaTest/Release/arduino.ar(cortex_handlers.c.o)
                0x000060be                USB_2_Handler
 .text.USB_3_Handler
                0x000060c2        0x4 C:/sloeber-workspace/Samd51_DmaTest/Release/arduino.ar(cortex_handlers.c.o)
                0x000060c2                USB_3_Handler
 *fill*         0x000060c6        0x2 
 .text.USB_SetHandler
                0x000060c8        0xc C:/sloeber-workspace/Samd51_DmaTest/Release/arduino.ar(cortex_handlers.c.o)
                0x000060c8                USB_SetHandler
 .text.micros   0x000060d4       0x58 C:/sloeber-workspace/Samd51_DmaTest/Release/arduino.ar(delay.c.o)
                0x000060d4                micros
 .text.delay    0x0000612c       0x26 C:/sloeber-workspace/Samd51_DmaTest/Release/arduino.ar(delay.c.o)
                0x0000612c                delay
 *fill*         0x00006152        0x2 
 .text.SysTick_DefaultHandler
                0x00006154       0x10 C:/sloeber-workspace/Samd51_DmaTest/Release/arduino.ar(delay.c.o)
                0x00006154                SysTick_DefaultHandler
 .text.__empty  0x00006164        0x2 C:/sloeber-workspace/Samd51_DmaTest/Release/arduino.ar(hooks.c.o)
                0x00006164                yield
 .text.__false  0x00006166        0x4 C:/sloeber-workspace/Samd51_DmaTest/Release/arduino.ar(hooks.c.o)
                0x00006166                sysTickHook
 .text._Z11initVariantv
                0x0000616a        0x2 C:/sloeber-workspace/Samd51_DmaTest/Release/arduino.ar(main.cpp.o)
                0x0000616a                initVariant()
 .text.startup.main
                0x0000616c       0x40 C:/sloeber-workspace/Samd51_DmaTest/Release/arduino.ar(main.cpp.o)
                0x0000616c                main
 .text._Znwj    0x000061ac        0x4 C:/sloeber-workspace/Samd51_DmaTest/Release/arduino.ar(new.cpp.o)
                0x000061ac                operator new(unsigned int)
 .text._ZdlPv   0x000061b0        0x4 C:/sloeber-workspace/Samd51_DmaTest/Release/arduino.ar(new.cpp.o)
                0x000061b0                operator delete(void*)
 .text.SystemInit
                0x000061b4      0x1f8 C:/sloeber-workspace/Samd51_DmaTest/Release/arduino.ar(startup.c.o)
                0x000061b4                SystemInit
 .text.init     0x000063ac      0x118 C:/sloeber-workspace/Samd51_DmaTest/Release/arduino.ar(wiring.c.o)
                0x000063ac                init
 .text.analogReference
                0x000064c4       0xc8 C:/sloeber-workspace/Samd51_DmaTest/Release/arduino.ar(wiring_analog.c.o)
                0x000064c4                analogReference
 .text.pinMode  0x0000658c       0x88 C:/sloeber-workspace/Samd51_DmaTest/Release/arduino.ar(wiring_digital.c.o)
                0x0000658c                pinMode
 .text.digitalWrite
                0x00006614       0x54 C:/sloeber-workspace/Samd51_DmaTest/Release/arduino.ar(wiring_digital.c.o)
                0x00006614                digitalWrite
 .text.pinPeripheral
                0x00006668       0xac C:/sloeber-workspace/Samd51_DmaTest/Release/arduino.ar(wiring_private.c.o)
                0x00006668                pinPeripheral
 .text._ZN13PluggableUSB_12getInterfaceEPh
                0x00006714       0x26 C:/sloeber-workspace/Samd51_DmaTest/Release/arduino.ar(PluggableUSB.cpp.o)
                0x00006714                PluggableUSB_::getInterface(unsigned char*)
 .text._ZN13PluggableUSB_13getDescriptorER8USBSetup
                0x0000673a       0x1c C:/sloeber-workspace/Samd51_DmaTest/Release/arduino.ar(PluggableUSB.cpp.o)
                0x0000673a                PluggableUSB_::getDescriptor(USBSetup&)
 .text._ZN13PluggableUSB_5setupER8USBSetup
                0x00006756       0x1c C:/sloeber-workspace/Samd51_DmaTest/Release/arduino.ar(PluggableUSB.cpp.o)
                0x00006756                PluggableUSB_::setup(USBSetup&)
 *fill*         0x00006772        0x2 
 .text._Z12PluggableUSBv
                0x00006774       0x24 C:/sloeber-workspace/Samd51_DmaTest/Release/arduino.ar(PluggableUSB.cpp.o)
                0x00006774                PluggableUSB()
 .text._ZN20USBDevice_SAMD21G18x5resetEv
                0x00006798       0x32 C:/sloeber-workspace/Samd51_DmaTest/Release/arduino.ar(SAMD21_USBDevice.cpp.o)
                0x00006798                USBDevice_SAMD21G18x::reset()
 *fill*         0x000067ca        0x2 
 .text._ZN20USBDevice_SAMD21G18x9calibrateEv
                0x000067cc       0x48 C:/sloeber-workspace/Samd51_DmaTest/Release/arduino.ar(SAMD21_USBDevice.cpp.o)
                0x000067cc                USBDevice_SAMD21G18x::calibrate()
 .text.__assert_func
                0x00006814       0x3c c:/sloeber/arduinoplugin/packages/arduino/tools/arm-none-eabi-gcc/7-2017q4/bin/../lib/gcc/arm-none-eabi/7.2.1/../../../../arm-none-eabi/lib/thumb/v7e-m/fpv4-sp/hard\libc_nano.a(lib_a-assert.o)
                0x00006814                __assert_func
 .text.fprintf  0x00006850       0x24 c:/sloeber/arduinoplugin/packages/arduino/tools/arm-none-eabi-gcc/7-2017q4/bin/../lib/gcc/arm-none-eabi/7.2.1/../../../../arm-none-eabi/lib/thumb/v7e-m/fpv4-sp/hard\libc_nano.a(lib_a-fprintf.o)
                0x00006850                fiprintf
                0x00006850                fprintf
 .text.__libc_init_array
                0x00006874       0x48 c:/sloeber/arduinoplugin/packages/arduino/tools/arm-none-eabi-gcc/7-2017q4/bin/../lib/gcc/arm-none-eabi/7.2.1/../../../../arm-none-eabi/lib/thumb/v7e-m/fpv4-sp/hard\libc_nano.a(lib_a-init.o)
                0x00006874                __libc_init_array
 .text.malloc   0x000068bc       0x10 c:/sloeber/arduinoplugin/packages/arduino/tools/arm-none-eabi-gcc/7-2017q4/bin/../lib/gcc/arm-none-eabi/7.2.1/../../../../arm-none-eabi/lib/thumb/v7e-m/fpv4-sp/hard\libc_nano.a(lib_a-malloc.o)
                0x000068bc                malloc
 .text.free     0x000068cc       0x10 c:/sloeber/arduinoplugin/packages/arduino/tools/arm-none-eabi-gcc/7-2017q4/bin/../lib/gcc/arm-none-eabi/7.2.1/../../../../arm-none-eabi/lib/thumb/v7e-m/fpv4-sp/hard\libc_nano.a(lib_a-malloc.o)
                0x000068cc                free
 .text.memcpy   0x000068dc       0x16 c:/sloeber/arduinoplugin/packages/arduino/tools/arm-none-eabi-gcc/7-2017q4/bin/../lib/gcc/arm-none-eabi/7.2.1/../../../../arm-none-eabi/lib/thumb/v7e-m/fpv4-sp/hard\libc_nano.a(lib_a-memcpy-stub.o)
                0x000068dc                memcpy
 .text.memset   0x000068f2       0x10 c:/sloeber/arduinoplugin/packages/arduino/tools/arm-none-eabi-gcc/7-2017q4/bin/../lib/gcc/arm-none-eabi/7.2.1/../../../../arm-none-eabi/lib/thumb/v7e-m/fpv4-sp/hard\libc_nano.a(lib_a-memset.o)
                0x000068f2                memset
 *fill*         0x00006902        0x2 
 .text._free_r  0x00006904       0x9c c:/sloeber/arduinoplugin/packages/arduino/tools/arm-none-eabi-gcc/7-2017q4/bin/../lib/gcc/arm-none-eabi/7.2.1/../../../../arm-none-eabi/lib/thumb/v7e-m/fpv4-sp/hard\libc_nano.a(lib_a-nano-freer.o)
                0x00006904                _free_r
 .text._malloc_r
                0x000069a0       0xb4 c:/sloeber/arduinoplugin/packages/arduino/tools/arm-none-eabi-gcc/7-2017q4/bin/../lib/gcc/arm-none-eabi/7.2.1/../../../../arm-none-eabi/lib/thumb/v7e-m/fpv4-sp/hard\libc_nano.a(lib_a-nano-mallocr.o)
                0x000069a0                _malloc_r
 .text.__sfputc_r
                0x00006a54       0x2e c:/sloeber/arduinoplugin/packages/arduino/tools/arm-none-eabi-gcc/7-2017q4/bin/../lib/gcc/arm-none-eabi/7.2.1/../../../../arm-none-eabi/lib/thumb/v7e-m/fpv4-sp/hard\libc_nano.a(lib_a-nano-vfprintf.o)
 .text.__sfputs_r
                0x00006a82       0x24 c:/sloeber/arduinoplugin/packages/arduino/tools/arm-none-eabi-gcc/7-2017q4/bin/../lib/gcc/arm-none-eabi/7.2.1/../../../../arm-none-eabi/lib/thumb/v7e-m/fpv4-sp/hard\libc_nano.a(lib_a-nano-vfprintf.o)
                0x00006a82                __sfputs_r
 *fill*         0x00006aa6        0x2 
 .text._vfprintf_r
                0x00006aa8      0x228 c:/sloeber/arduinoplugin/packages/arduino/tools/arm-none-eabi-gcc/7-2017q4/bin/../lib/gcc/arm-none-eabi/7.2.1/../../../../arm-none-eabi/lib/thumb/v7e-m/fpv4-sp/hard\libc_nano.a(lib_a-nano-vfprintf.o)
                0x00006aa8                _vfprintf_r
                0x00006aa8                _vfiprintf_r
 .text._printf_common
                0x00006cd0       0xea c:/sloeber/arduinoplugin/packages/arduino/tools/arm-none-eabi-gcc/7-2017q4/bin/../lib/gcc/arm-none-eabi/7.2.1/../../../../arm-none-eabi/lib/thumb/v7e-m/fpv4-sp/hard\libc_nano.a(lib_a-nano-vfprintf_i.o)
                0x00006cd0                _printf_common
 *fill*         0x00006dba        0x2 
 .text._printf_i
                0x00006dbc      0x224 c:/sloeber/arduinoplugin/packages/arduino/tools/arm-none-eabi-gcc/7-2017q4/bin/../lib/gcc/arm-none-eabi/7.2.1/../../../../arm-none-eabi/lib/thumb/v7e-m/fpv4-sp/hard\libc_nano.a(lib_a-nano-vfprintf_i.o)
                0x00006dbc                _printf_i
 .text._sbrk_r  0x00006fe0       0x20 c:/sloeber/arduinoplugin/packages/arduino/tools/arm-none-eabi-gcc/7-2017q4/bin/../lib/gcc/arm-none-eabi/7.2.1/../../../../arm-none-eabi/lib/thumb/v7e-m/fpv4-sp/hard\libc_nano.a(lib_a-sbrkr.o)
                0x00006fe0                _sbrk_r
 .text          0x00007000       0x10 c:/sloeber/arduinoplugin/packages/arduino/tools/arm-none-eabi-gcc/7-2017q4/bin/../lib/gcc/arm-none-eabi/7.2.1/../../../../arm-none-eabi/lib/thumb/v7e-m/fpv4-sp/hard\libc_nano.a(lib_a-strlen.o)
                0x00007000                strlen
 .text.__swbuf_r
                0x00007010       0xa4 c:/sloeber/arduinoplugin/packages/arduino/tools/arm-none-eabi-gcc/7-2017q4/bin/../lib/gcc/arm-none-eabi/7.2.1/../../../../arm-none-eabi/lib/thumb/v7e-m/fpv4-sp/hard\libc_nano.a(lib_a-wbuf.o)
                0x00007010                __swbuf_r
 .text.__swsetup_r
                0x000070b4       0xdc c:/sloeber/arduinoplugin/packages/arduino/tools/arm-none-eabi-gcc/7-2017q4/bin/../lib/gcc/arm-none-eabi/7.2.1/../../../../arm-none-eabi/lib/thumb/v7e-m/fpv4-sp/hard\libc_nano.a(lib_a-wsetup.o)
                0x000070b4                __swsetup_r
 .text.abort    0x00007190        0xe c:/sloeber/arduinoplugin/packages/arduino/tools/arm-none-eabi-gcc/7-2017q4/bin/../lib/gcc/arm-none-eabi/7.2.1/../../../../arm-none-eabi/lib/thumb/v7e-m/fpv4-sp/hard\libc_nano.a(lib_a-abort.o)
                0x00007190                abort
 *fill*         0x0000719e        0x2 
 .text.__sflush_r
                0x000071a0      0x10c c:/sloeber/arduinoplugin/packages/arduino/tools/arm-none-eabi-gcc/7-2017q4/bin/../lib/gcc/arm-none-eabi/7.2.1/../../../../arm-none-eabi/lib/thumb/v7e-m/fpv4-sp/hard\libc_nano.a(lib_a-fflush.o)
                0x000071a0                __sflush_r
 .text._fflush_r
                0x000072ac       0x54 c:/sloeber/arduinoplugin/packages/arduino/tools/arm-none-eabi-gcc/7-2017q4/bin/../lib/gcc/arm-none-eabi/7.2.1/../../../../arm-none-eabi/lib/thumb/v7e-m/fpv4-sp/hard\libc_nano.a(lib_a-fflush.o)
                0x000072ac                _fflush_r
 .text.std      0x00007300       0x48 c:/sloeber/arduinoplugin/packages/arduino/tools/arm-none-eabi-gcc/7-2017q4/bin/../lib/gcc/arm-none-eabi/7.2.1/../../../../arm-none-eabi/lib/thumb/v7e-m/fpv4-sp/hard\libc_nano.a(lib_a-findfp.o)
 .text._cleanup_r
                0x00007348        0xc c:/sloeber/arduinoplugin/packages/arduino/tools/arm-none-eabi-gcc/7-2017q4/bin/../lib/gcc/arm-none-eabi/7.2.1/../../../../arm-none-eabi/lib/thumb/v7e-m/fpv4-sp/hard\libc_nano.a(lib_a-findfp.o)
                0x00007348                _cleanup_r
 .text.__sfmoreglue
                0x00007354       0x2c c:/sloeber/arduinoplugin/packages/arduino/tools/arm-none-eabi-gcc/7-2017q4/bin/../lib/gcc/arm-none-eabi/7.2.1/../../../../arm-none-eabi/lib/thumb/v7e-m/fpv4-sp/hard\libc_nano.a(lib_a-findfp.o)
                0x00007354                __sfmoreglue
 .text.__sinit  0x00007380       0x60 c:/sloeber/arduinoplugin/packages/arduino/tools/arm-none-eabi-gcc/7-2017q4/bin/../lib/gcc/arm-none-eabi/7.2.1/../../../../arm-none-eabi/lib/thumb/v7e-m/fpv4-sp/hard\libc_nano.a(lib_a-findfp.o)
                0x00007380                __sinit
 .text.__sfp    0x000073e0       0x78 c:/sloeber/arduinoplugin/packages/arduino/tools/arm-none-eabi-gcc/7-2017q4/bin/../lib/gcc/arm-none-eabi/7.2.1/../../../../arm-none-eabi/lib/thumb/v7e-m/fpv4-sp/hard\libc_nano.a(lib_a-findfp.o)
                0x000073e0                __sfp
 .text._fwalk_reent
                0x00007458       0x3c c:/sloeber/arduinoplugin/packages/arduino/tools/arm-none-eabi-gcc/7-2017q4/bin/../lib/gcc/arm-none-eabi/7.2.1/../../../../arm-none-eabi/lib/thumb/v7e-m/fpv4-sp/hard\libc_nano.a(lib_a-fwalk.o)
                0x00007458                _fwalk_reent
 .text.__swhatbuf_r
                0x00007494       0x48 c:/sloeber/arduinoplugin/packages/arduino/tools/arm-none-eabi-gcc/7-2017q4/bin/../lib/gcc/arm-none-eabi/7.2.1/../../../../arm-none-eabi/lib/thumb/v7e-m/fpv4-sp/hard\libc_nano.a(lib_a-makebuf.o)
                0x00007494                __swhatbuf_r
 .text.__smakebuf_r
                0x000074dc       0x80 c:/sloeber/arduinoplugin/packages/arduino/tools/arm-none-eabi-gcc/7-2017q4/bin/../lib/gcc/arm-none-eabi/7.2.1/../../../../arm-none-eabi/lib/thumb/v7e-m/fpv4-sp/hard\libc_nano.a(lib_a-makebuf.o)
                0x000074dc                __smakebuf_r
 *fill*         0x0000755c        0x4 
 .text          0x00007560       0xa0 c:/sloeber/arduinoplugin/packages/arduino/tools/arm-none-eabi-gcc/7-2017q4/bin/../lib/gcc/arm-none-eabi/7.2.1/../../../../arm-none-eabi/lib/thumb/v7e-m/fpv4-sp/hard\libc_nano.a(lib_a-memchr.o)
                0x00007560                memchr
 .text.__malloc_lock
                0x00007600        0x2 c:/sloeber/arduinoplugin/packages/arduino/tools/arm-none-eabi-gcc/7-2017q4/bin/../lib/gcc/arm-none-eabi/7.2.1/../../../../arm-none-eabi/lib/thumb/v7e-m/fpv4-sp/hard\libc_nano.a(lib_a-mlock.o)
                0x00007600                __malloc_lock
 .text.__malloc_unlock
                0x00007602        0x2 c:/sloeber/arduinoplugin/packages/arduino/tools/arm-none-eabi-gcc/7-2017q4/bin/../lib/gcc/arm-none-eabi/7.2.1/../../../../arm-none-eabi/lib/thumb/v7e-m/fpv4-sp/hard\libc_nano.a(lib_a-mlock.o)
                0x00007602                __malloc_unlock
 .text._raise_r
                0x00007604       0x50 c:/sloeber/arduinoplugin/packages/arduino/tools/arm-none-eabi-gcc/7-2017q4/bin/../lib/gcc/arm-none-eabi/7.2.1/../../../../arm-none-eabi/lib/thumb/v7e-m/fpv4-sp/hard\libc_nano.a(lib_a-signal.o)
                0x00007604                _raise_r
 .text.raise    0x00007654       0x10 c:/sloeber/arduinoplugin/packages/arduino/tools/arm-none-eabi-gcc/7-2017q4/bin/../lib/gcc/arm-none-eabi/7.2.1/../../../../arm-none-eabi/lib/thumb/v7e-m/fpv4-sp/hard\libc_nano.a(lib_a-signal.o)
                0x00007654                raise
 .text._kill_r  0x00007664       0x24 c:/sloeber/arduinoplugin/packages/arduino/tools/arm-none-eabi-gcc/7-2017q4/bin/../lib/gcc/arm-none-eabi/7.2.1/../../../../arm-none-eabi/lib/thumb/v7e-m/fpv4-sp/hard\libc_nano.a(lib_a-signalr.o)
                0x00007664                _kill_r
 .text._getpid_r
                0x00007688        0x4 c:/sloeber/arduinoplugin/packages/arduino/tools/arm-none-eabi-gcc/7-2017q4/bin/../lib/gcc/arm-none-eabi/7.2.1/../../../../arm-none-eabi/lib/thumb/v7e-m/fpv4-sp/hard\libc_nano.a(lib_a-signalr.o)
                0x00007688                _getpid_r
 .text.__sread  0x0000768c       0x22 c:/sloeber/arduinoplugin/packages/arduino/tools/arm-none-eabi-gcc/7-2017q4/bin/../lib/gcc/arm-none-eabi/7.2.1/../../../../arm-none-eabi/lib/thumb/v7e-m/fpv4-sp/hard\libc_nano.a(lib_a-stdio.o)
                0x0000768c                __sread
 .text.__swrite
                0x000076ae       0x38 c:/sloeber/arduinoplugin/packages/arduino/tools/arm-none-eabi-gcc/7-2017q4/bin/../lib/gcc/arm-none-eabi/7.2.1/../../../../arm-none-eabi/lib/thumb/v7e-m/fpv4-sp/hard\libc_nano.a(lib_a-stdio.o)
                0x000076ae                __swrite
 .text.__sseek  0x000076e6       0x24 c:/sloeber/arduinoplugin/packages/arduino/tools/arm-none-eabi-gcc/7-2017q4/bin/../lib/gcc/arm-none-eabi/7.2.1/../../../../arm-none-eabi/lib/thumb/v7e-m/fpv4-sp/hard\libc_nano.a(lib_a-stdio.o)
                0x000076e6                __sseek
 .text.__sclose
                0x0000770a        0x8 c:/sloeber/arduinoplugin/packages/arduino/tools/arm-none-eabi-gcc/7-2017q4/bin/../lib/gcc/arm-none-eabi/7.2.1/../../../../arm-none-eabi/lib/thumb/v7e-m/fpv4-sp/hard\libc_nano.a(lib_a-stdio.o)
                0x0000770a                __sclose
 *fill*         0x00007712        0x2 
 .text._write_r
                0x00007714       0x24 c:/sloeber/arduinoplugin/packages/arduino/tools/arm-none-eabi-gcc/7-2017q4/bin/../lib/gcc/arm-none-eabi/7.2.1/../../../../arm-none-eabi/lib/thumb/v7e-m/fpv4-sp/hard\libc_nano.a(lib_a-writer.o)
                0x00007714                _write_r
 .text._close_r
                0x00007738       0x20 c:/sloeber/arduinoplugin/packages/arduino/tools/arm-none-eabi-gcc/7-2017q4/bin/../lib/gcc/arm-none-eabi/7.2.1/../../../../arm-none-eabi/lib/thumb/v7e-m/fpv4-sp/hard\libc_nano.a(lib_a-closer.o)
                0x00007738                _close_r
 .text._fstat_r
                0x00007758       0x24 c:/sloeber/arduinoplugin/packages/arduino/tools/arm-none-eabi-gcc/7-2017q4/bin/../lib/gcc/arm-none-eabi/7.2.1/../../../../arm-none-eabi/lib/thumb/v7e-m/fpv4-sp/hard\libc_nano.a(lib_a-fstatr.o)
                0x00007758                _fstat_r
 .text._isatty_r
                0x0000777c       0x20 c:/sloeber/arduinoplugin/packages/arduino/tools/arm-none-eabi-gcc/7-2017q4/bin/../lib/gcc/arm-none-eabi/7.2.1/../../../../arm-none-eabi/lib/thumb/v7e-m/fpv4-sp/hard\libc_nano.a(lib_a-isattyr.o)
                0x0000777c                _isatty_r
 .text._lseek_r
                0x0000779c       0x24 c:/sloeber/arduinoplugin/packages/arduino/tools/arm-none-eabi-gcc/7-2017q4/bin/../lib/gcc/arm-none-eabi/7.2.1/../../../../arm-none-eabi/lib/thumb/v7e-m/fpv4-sp/hard\libc_nano.a(lib_a-lseekr.o)
                0x0000779c                _lseek_r
 .text._read_r  0x000077c0       0x24 c:/sloeber/arduinoplugin/packages/arduino/tools/arm-none-eabi-gcc/7-2017q4/bin/../lib/gcc/arm-none-eabi/7.2.1/../../../../arm-none-eabi/lib/thumb/v7e-m/fpv4-sp/hard\libc_nano.a(lib_a-readr.o)
                0x000077c0                _read_r
 .text._close   0x000077e4       0x10 c:/sloeber/arduinoplugin/packages/arduino/tools/arm-none-eabi-gcc/7-2017q4/bin/../lib/gcc/arm-none-eabi/7.2.1/../../../../arm-none-eabi/lib/thumb/v7e-m/fpv4-sp/hard\libnosys.a(close.o)
                0x000077e4                _close
 .text._fstat   0x000077f4       0x10 c:/sloeber/arduinoplugin/packages/arduino/tools/arm-none-eabi-gcc/7-2017q4/bin/../lib/gcc/arm-none-eabi/7.2.1/../../../../arm-none-eabi/lib/thumb/v7e-m/fpv4-sp/hard\libnosys.a(fstat.o)
                0x000077f4                _fstat
 .text._getpid  0x00007804       0x10 c:/sloeber/arduinoplugin/packages/arduino/tools/arm-none-eabi-gcc/7-2017q4/bin/../lib/gcc/arm-none-eabi/7.2.1/../../../../arm-none-eabi/lib/thumb/v7e-m/fpv4-sp/hard\libnosys.a(getpid.o)
                0x00007804                _getpid
 .text._isatty  0x00007814       0x10 c:/sloeber/arduinoplugin/packages/arduino/tools/arm-none-eabi-gcc/7-2017q4/bin/../lib/gcc/arm-none-eabi/7.2.1/../../../../arm-none-eabi/lib/thumb/v7e-m/fpv4-sp/hard\libnosys.a(isatty.o)
                0x00007814                _isatty
 .text._kill    0x00007824       0x10 c:/sloeber/arduinoplugin/packages/arduino/tools/arm-none-eabi-gcc/7-2017q4/bin/../lib/gcc/arm-none-eabi/7.2.1/../../../../arm-none-eabi/lib/thumb/v7e-m/fpv4-sp/hard\libnosys.a(kill.o)
                0x00007824                _kill
 .text._lseek   0x00007834       0x10 c:/sloeber/arduinoplugin/packages/arduino/tools/arm-none-eabi-gcc/7-2017q4/bin/../lib/gcc/arm-none-eabi/7.2.1/../../../../arm-none-eabi/lib/thumb/v7e-m/fpv4-sp/hard\libnosys.a(lseek.o)
                0x00007834                _lseek
 .text._read    0x00007844       0x10 c:/sloeber/arduinoplugin/packages/arduino/tools/arm-none-eabi-gcc/7-2017q4/bin/../lib/gcc/arm-none-eabi/7.2.1/../../../../arm-none-eabi/lib/thumb/v7e-m/fpv4-sp/hard\libnosys.a(read.o)
                0x00007844                _read
 .text._sbrk    0x00007854       0x1c c:/sloeber/arduinoplugin/packages/arduino/tools/arm-none-eabi-gcc/7-2017q4/bin/../lib/gcc/arm-none-eabi/7.2.1/../../../../arm-none-eabi/lib/thumb/v7e-m/fpv4-sp/hard\libnosys.a(sbrk.o)
                0x00007854                _sbrk
 .text._write   0x00007870       0x10 c:/sloeber/arduinoplugin/packages/arduino/tools/arm-none-eabi-gcc/7-2017q4/bin/../lib/gcc/arm-none-eabi/7.2.1/../../../../arm-none-eabi/lib/thumb/v7e-m/fpv4-sp/hard\libnosys.a(write.o)
                0x00007870                _write
 .text._exit    0x00007880        0x4 c:/sloeber/arduinoplugin/packages/arduino/tools/arm-none-eabi-gcc/7-2017q4/bin/../lib/gcc/arm-none-eabi/7.2.1/../../../../arm-none-eabi/lib/thumb/v7e-m/fpv4-sp/hard\libnosys.a(_exit.o)
                0x00007880                _exit
 *(.init)
 .init          0x00007884        0x4 c:/sloeber/arduinoplugin/packages/arduino/tools/arm-none-eabi-gcc/7-2017q4/bin/../lib/gcc/arm-none-eabi/7.2.1/thumb/v7e-m/fpv4-sp/hard/crti.o
                0x00007884                _init
 .init          0x00007888        0x8 c:/sloeber/arduinoplugin/packages/arduino/tools/arm-none-eabi-gcc/7-2017q4/bin/../lib/gcc/arm-none-eabi/7.2.1/thumb/v7e-m/fpv4-sp/hard/crtn.o
 *(.fini)
 .fini          0x00007890        0x4 c:/sloeber/arduinoplugin/packages/arduino/tools/arm-none-eabi-gcc/7-2017q4/bin/../lib/gcc/arm-none-eabi/7.2.1/thumb/v7e-m/fpv4-sp/hard/crti.o
                0x00007890                _fini
 .fini          0x00007894        0x8 c:/sloeber/arduinoplugin/packages/arduino/tools/arm-none-eabi-gcc/7-2017q4/bin/../lib/gcc/arm-none-eabi/7.2.1/thumb/v7e-m/fpv4-sp/hard/crtn.o
 *crtbegin.o(.ctors)
 *crtbegin?.o(.ctors)
 *(EXCLUDE_FILE(*crtend.o *crtend?.o) .ctors)
 *(SORT_BY_NAME(.ctors.*))
 *(.ctors)
 *crtbegin.o(.dtors)
 *crtbegin?.o(.dtors)
 *(EXCLUDE_FILE(*crtend.o *crtend?.o) .dtors)
 *(SORT_BY_NAME(.dtors.*))
 *(.dtors)
 *(.rodata*)
 .rodata.loop.str1.1
                0x0000789c       0x1d .\sloeber.ino.cpp.o
 .rodata.setup.str1.1
                0x000078b9       0x36 .\sloeber.ino.cpp.o
 .rodata._ZN8SPIClassC2EP6SERCOMhhh14SercomSpiTXPad11SercomRXPad.str1.1
                0x000078ef       0x74 .\libraries\SPI\SPI.cpp.o
 .rodata._ZZN8SPIClassC4EP6SERCOMhhh14SercomSpiTXPad11SercomRXPadE19__PRETTY_FUNCTION__
                0x00007963       0x54 .\libraries\SPI\SPI.cpp.o
 *fill*         0x000079b7        0x1 
 .rodata.g_APinDescription
                0x000079b8      0x468 .\core\variant\variant.cpp.o
                0x000079b8                g_APinDescription
 .rodata._ZTV7Serial_
                0x00007e20       0x24 C:/sloeber-workspace/Samd51_DmaTest/Release/arduino.ar(CDC.cpp.o)
                0x00007e20                vtable for Serial_
 .rodata._ZTV26DoubleBufferedEPOutHandler
                0x00007e44       0x20 C:/sloeber-workspace/Samd51_DmaTest/Release/arduino.ar(USBCore.cpp.o)
                0x00007e44                vtable for DoubleBufferedEPOutHandler
 .rodata._ZL14STRING_PRODUCT
                0x00007e64       0x12 C:/sloeber-workspace/Samd51_DmaTest/Release/arduino.ar(USBCore.cpp.o)
 .rodata._ZL15STRING_LANGUAGE
                0x00007e76        0x4 C:/sloeber-workspace/Samd51_DmaTest/Release/arduino.ar(USBCore.cpp.o)
 .rodata._ZL19STRING_MANUFACTURER
                0x00007e7a        0xd C:/sloeber-workspace/Samd51_DmaTest/Release/arduino.ar(USBCore.cpp.o)
 .rodata._ZL21USB_DeviceDescriptorB
                0x00007e87       0x12 C:/sloeber-workspace/Samd51_DmaTest/Release/arduino.ar(USBCore.cpp.o)
 .rodata._ZN5Print7printlnEv.str1.1
                0x00007e99        0x3 C:/sloeber-workspace/Samd51_DmaTest/Release/arduino.ar(Print.cpp.o)
 .rodata._ZL10sercomData
                0x00007e9c       0x60 C:/sloeber-workspace/Samd51_DmaTest/Release/arduino.ar(SERCOM.cpp.o)
 .rodata._ZTV4Uart
                0x00007efc       0x34 C:/sloeber-workspace/Samd51_DmaTest/Release/arduino.ar(Uart.cpp.o)
                0x00007efc                vtable for Uart
 .rodata.__assert_func.str1.1
                0x00007f30       0x3c c:/sloeber/arduinoplugin/packages/arduino/tools/arm-none-eabi-gcc/7-2017q4/bin/../lib/gcc/arm-none-eabi/7.2.1/../../../../arm-none-eabi/lib/thumb/v7e-m/fpv4-sp/hard\libc_nano.a(lib_a-assert.o)
                                 0x3d (size before relaxing)
 .rodata._global_impure_ptr
                0x00007f6c        0x4 c:/sloeber/arduinoplugin/packages/arduino/tools/arm-none-eabi-gcc/7-2017q4/bin/../lib/gcc/arm-none-eabi/7.2.1/../../../../arm-none-eabi/lib/thumb/v7e-m/fpv4-sp/hard\libc_nano.a(lib_a-impure.o)
                0x00007f6c                _global_impure_ptr
 .rodata._vfprintf_r.str1.1
                0x00007f70       0x11 c:/sloeber/arduinoplugin/packages/arduino/tools/arm-none-eabi-gcc/7-2017q4/bin/../lib/gcc/arm-none-eabi/7.2.1/../../../../arm-none-eabi/lib/thumb/v7e-m/fpv4-sp/hard\libc_nano.a(lib_a-nano-vfprintf.o)
 .rodata._printf_i.str1.1
                0x00007f81       0x22 c:/sloeber/arduinoplugin/packages/arduino/tools/arm-none-eabi-gcc/7-2017q4/bin/../lib/gcc/arm-none-eabi/7.2.1/../../../../arm-none-eabi/lib/thumb/v7e-m/fpv4-sp/hard\libc_nano.a(lib_a-nano-vfprintf_i.o)
 *fill*         0x00007fa3        0x1 
 .rodata.__sf_fake_stderr
                0x00007fa4       0x20 c:/sloeber/arduinoplugin/packages/arduino/tools/arm-none-eabi-gcc/7-2017q4/bin/../lib/gcc/arm-none-eabi/7.2.1/../../../../arm-none-eabi/lib/thumb/v7e-m/fpv4-sp/hard\libc_nano.a(lib_a-findfp.o)
                0x00007fa4                __sf_fake_stderr
 .rodata.__sf_fake_stdin
                0x00007fc4       0x20 c:/sloeber/arduinoplugin/packages/arduino/tools/arm-none-eabi-gcc/7-2017q4/bin/../lib/gcc/arm-none-eabi/7.2.1/../../../../arm-none-eabi/lib/thumb/v7e-m/fpv4-sp/hard\libc_nano.a(lib_a-findfp.o)
                0x00007fc4                __sf_fake_stdin
 .rodata.__sf_fake_stdout
                0x00007fe4       0x20 c:/sloeber/arduinoplugin/packages/arduino/tools/arm-none-eabi-gcc/7-2017q4/bin/../lib/gcc/arm-none-eabi/7.2.1/../../../../arm-none-eabi/lib/thumb/v7e-m/fpv4-sp/hard\libc_nano.a(lib_a-findfp.o)
                0x00007fe4                __sf_fake_stdout
 *(.eh_frame*)
 .eh_frame      0x00008004        0x0 c:/sloeber/arduinoplugin/packages/arduino/tools/arm-none-eabi-gcc/7-2017q4/bin/../lib/gcc/arm-none-eabi/7.2.1/thumb/v7e-m/fpv4-sp/hard/crtbegin.o
 .eh_frame      0x00008004        0x4 c:/sloeber/arduinoplugin/packages/arduino/tools/arm-none-eabi-gcc/7-2017q4/bin/../lib/gcc/arm-none-eabi/7.2.1/thumb/v7e-m/fpv4-sp/hard/crtend.o

.glue_7         0x00008008        0x0
 .glue_7        0x00008008        0x0 linker stubs

.glue_7t        0x00008008        0x0
 .glue_7t       0x00008008        0x0 linker stubs

.vfp11_veneer   0x00008008        0x0
 .vfp11_veneer  0x00008008        0x0 linker stubs

.v4_bx          0x00008008        0x0
 .v4_bx         0x00008008        0x0 linker stubs

.iplt           0x00008008        0x0
 .iplt          0x00008008        0x0 c:/sloeber/arduinoplugin/packages/arduino/tools/arm-none-eabi-gcc/7-2017q4/bin/../lib/gcc/arm-none-eabi/7.2.1/thumb/v7e-m/fpv4-sp/hard/crtbegin.o

.rel.dyn        0x00008008        0x0
 .rel.iplt      0x00008008        0x0 c:/sloeber/arduinoplugin/packages/arduino/tools/arm-none-eabi-gcc/7-2017q4/bin/../lib/gcc/arm-none-eabi/7.2.1/thumb/v7e-m/fpv4-sp/hard/crtbegin.o

.ARM.extab
 *(.ARM.extab* .gnu.linkonce.armextab.*)
                0x00008008                __exidx_start = .

.ARM.exidx
 *(.ARM.exidx* .gnu.linkonce.armexidx.*)
                0x00008008                __exidx_end = .
                0x00008008                __etext = .

.data           0x20000000      0x100 load address 0x00008008
                0x20000000                __data_start__ = .
 *(vtable)
 *(.data*)
 .data._ZL10breakValue
                0x20000000        0x4 C:/sloeber-workspace/Samd51_DmaTest/Release/arduino.ar(CDC.cpp.o)
 .data._ZL12_usbLineInfo
                0x20000004        0x8 C:/sloeber-workspace/Samd51_DmaTest/Release/arduino.ar(CDC.cpp.o)
 .data._ZL13_cdcInterface
                0x2000000c       0x42 C:/sloeber-workspace/Samd51_DmaTest/Release/arduino.ar(CDC.cpp.o)
 *fill*         0x2000004e        0x2 
 .data._serialPeek
                0x20000050        0x4 C:/sloeber-workspace/Samd51_DmaTest/Release/arduino.ar(CDC.cpp.o)
                0x20000050                _serialPeek
 .data.EndPoints
                0x20000054       0x28 C:/sloeber-workspace/Samd51_DmaTest/Release/arduino.ar(USBCore.cpp.o)
                0x20000054                EndPoints
 .data._ZL5ticks
                0x2000007c        0x4 C:/sloeber-workspace/Samd51_DmaTest/Release/arduino.ar(Reset.cpp.o)
 .data.SystemCoreClock
                0x20000080        0x4 C:/sloeber-workspace/Samd51_DmaTest/Release/arduino.ar(wiring.c.o)
                0x20000080                SystemCoreClock
 .data._impure_ptr
                0x20000084        0x4 c:/sloeber/arduinoplugin/packages/arduino/tools/arm-none-eabi-gcc/7-2017q4/bin/../lib/gcc/arm-none-eabi/7.2.1/../../../../arm-none-eabi/lib/thumb/v7e-m/fpv4-sp/hard\libc_nano.a(lib_a-impure.o)
                0x20000084                _impure_ptr
 .data.impure_data
                0x20000088       0x60 c:/sloeber/arduinoplugin/packages/arduino/tools/arm-none-eabi-gcc/7-2017q4/bin/../lib/gcc/arm-none-eabi/7.2.1/../../../../arm-none-eabi/lib/thumb/v7e-m/fpv4-sp/hard\libc_nano.a(lib_a-impure.o)
                0x200000e8                . = ALIGN (0x4)
                0x200000e8                PROVIDE (__preinit_array_start, .)
 *(.preinit_array)
                0x200000e8                PROVIDE (__preinit_array_end, .)
                0x200000e8                . = ALIGN (0x4)
                0x200000e8                PROVIDE (__init_array_start, .)
 *(SORT_BY_NAME(.init_array.*))
 *(.init_array)
 .init_array    0x200000e8        0x4 c:/sloeber/arduinoplugin/packages/arduino/tools/arm-none-eabi-gcc/7-2017q4/bin/../lib/gcc/arm-none-eabi/7.2.1/thumb/v7e-m/fpv4-sp/hard/crtbegin.o
 .init_array    0x200000ec        0x4 .\libraries\SPI\SPI.cpp.o
 .init_array    0x200000f0        0x4 .\core\variant\variant.cpp.o
 .init_array    0x200000f4        0x4 C:/sloeber-workspace/Samd51_DmaTest/Release/arduino.ar(CDC.cpp.o)
 .init_array    0x200000f8        0x4 C:/sloeber-workspace/Samd51_DmaTest/Release/arduino.ar(USBCore.cpp.o)
                0x200000fc                PROVIDE (__init_array_end, .)
                0x200000fc                . = ALIGN (0x4)
                [!provide]                PROVIDE (__fini_array_start, .)
 *(SORT_BY_NAME(.fini_array.*))
 *(.fini_array)
 .fini_array    0x200000fc        0x4 c:/sloeber/arduinoplugin/packages/arduino/tools/arm-none-eabi-gcc/7-2017q4/bin/../lib/gcc/arm-none-eabi/7.2.1/thumb/v7e-m/fpv4-sp/hard/crtbegin.o
                [!provide]                PROVIDE (__fini_array_end, .)
 *(.jcr*)
                0x20000100                . = ALIGN (0x10)
                0x20000100                __data_end__ = .

.igot.plt       0x20000100        0x0 load address 0x00008108
 .igot.plt      0x20000100        0x0 c:/sloeber/arduinoplugin/packages/arduino/tools/arm-none-eabi-gcc/7-2017q4/bin/../lib/gcc/arm-none-eabi/7.2.1/thumb/v7e-m/fpv4-sp/hard/crtbegin.o

.bss            0x20000100     0x2984 load address 0x00008108
                0x20000100                . = ALIGN (0x4)
                0x20000100                __bss_start__ = .
 *(.bss*)
 .bss           0x20000100       0x1c c:/sloeber/arduinoplugin/packages/arduino/tools/arm-none-eabi-gcc/7-2017q4/bin/../lib/gcc/arm-none-eabi/7.2.1/thumb/v7e-m/fpv4-sp/hard/crtbegin.o
 .bss.receive_memory
                0x2000011c     0x1000 .\sloeber.ino.cpp.o
                0x2000011c                receive_memory
 .bss.send_memory
                0x2000111c     0x1000 .\sloeber.ino.cpp.o
                0x2000111c                send_memory
 .bss.SPI       0x2000211c       0x58 .\libraries\SPI\SPI.cpp.o
                0x2000211c                SPI
 .bss._ZL20DEFAULT_SPI_SETTINGS
                0x20002174        0x8 .\libraries\SPI\SPI.cpp.o
 .bss._ZL28cpu_irq_prev_interrupt_state
                0x2000217c        0x1 .\libraries\Adafruit_ZeroDMA\Adafruit_ZeroDMA.cpp.o
 *fill*         0x2000217d        0x3 
 .bss._ZL32cpu_irq_critical_section_counter
                0x20002180        0x4 .\libraries\Adafruit_ZeroDMA\Adafruit_ZeroDMA.cpp.o
 .bss._ZL7_dmaPtr
                0x20002184       0x80 .\libraries\Adafruit_ZeroDMA\Adafruit_ZeroDMA.cpp.o
 .bss.Serial1   0x20002204      0x23c .\core\variant\variant.cpp.o
                0x20002204                Serial1
 .bss.sercom0   0x20002440        0xc .\core\variant\variant.cpp.o
                0x20002440                sercom0
 .bss.sercom1   0x2000244c        0xc .\core\variant\variant.cpp.o
                0x2000244c                sercom1
 .bss.sercom2   0x20002458        0xc .\core\variant\variant.cpp.o
                0x20002458                sercom2
 .bss.sercom3   0x20002464        0xc .\core\variant\variant.cpp.o
                0x20002464                sercom3
 .bss.sercom4   0x20002470        0xc .\core\variant\variant.cpp.o
                0x20002470                sercom4
 .bss.sercom5   0x2000247c        0xc .\core\variant\variant.cpp.o
                0x2000247c                sercom5
 .bss.Serial    0x20002488       0x1c C:/sloeber-workspace/Samd51_DmaTest/Release/arduino.ar(CDC.cpp.o)
                0x20002488                Serial
 .bss.USBDevice
                0x200024a4        0x1 C:/sloeber-workspace/Samd51_DmaTest/Release/arduino.ar(USBCore.cpp.o)
                0x200024a4                USBDevice
 *fill*         0x200024a5        0x3 
 .bss._ZL10epHandlers
                0x200024a8       0x1c C:/sloeber-workspace/Samd51_DmaTest/Release/arduino.ar(USBCore.cpp.o)
 .bss._ZL10rxLEDPulse
                0x200024c4        0x1 C:/sloeber-workspace/Samd51_DmaTest/Release/arduino.ar(USBCore.cpp.o)
 .bss._ZL10txLEDPulse
                0x200024c5        0x1 C:/sloeber-workspace/Samd51_DmaTest/Release/arduino.ar(USBCore.cpp.o)
 .bss._ZL14isEndpointHalt
                0x200024c6        0x1 C:/sloeber-workspace/Samd51_DmaTest/Release/arduino.ar(USBCore.cpp.o)
 .bss._ZL20LastTransmitTimedOut
                0x200024c7        0x7 C:/sloeber-workspace/Samd51_DmaTest/Release/arduino.ar(USBCore.cpp.o)
 .bss._ZL21isRemoteWakeUpEnabled
                0x200024ce        0x1 C:/sloeber-workspace/Samd51_DmaTest/Release/arduino.ar(USBCore.cpp.o)
 *fill*         0x200024cf        0x1 
 .bss._ZL22udd_ep_in_cache_buffer
                0x200024d0      0x1c0 C:/sloeber-workspace/Samd51_DmaTest/Release/arduino.ar(USBCore.cpp.o)
 .bss._ZL23udd_ep_out_cache_buffer
                0x20002690      0x1c0 C:/sloeber-workspace/Samd51_DmaTest/Release/arduino.ar(USBCore.cpp.o)
 .bss._dry_run  0x20002850        0x1 C:/sloeber-workspace/Samd51_DmaTest/Release/arduino.ar(USBCore.cpp.o)
                0x20002850                _dry_run
 .bss._pack_buffer
                0x20002851      0x100 C:/sloeber-workspace/Samd51_DmaTest/Release/arduino.ar(USBCore.cpp.o)
                0x20002851                _pack_buffer
 .bss._pack_message
                0x20002951        0x1 C:/sloeber-workspace/Samd51_DmaTest/Release/arduino.ar(USBCore.cpp.o)
                0x20002951                _pack_message
 .bss._pack_size
                0x20002952        0x2 C:/sloeber-workspace/Samd51_DmaTest/Release/arduino.ar(USBCore.cpp.o)
                0x20002952                _pack_size
 .bss._usbConfiguration
                0x20002954        0x4 C:/sloeber-workspace/Samd51_DmaTest/Release/arduino.ar(USBCore.cpp.o)
                0x20002954                _usbConfiguration
 .bss._usbSetInterface
                0x20002958        0x4 C:/sloeber-workspace/Samd51_DmaTest/Release/arduino.ar(USBCore.cpp.o)
                0x20002958                _usbSetInterface
 .bss.usbd      0x2000295c      0x104 C:/sloeber-workspace/Samd51_DmaTest/Release/arduino.ar(USBCore.cpp.o)
                0x2000295c                usbd
 .bss.usb_isr   0x20002a60        0x4 C:/sloeber-workspace/Samd51_DmaTest/Release/arduino.ar(cortex_handlers.c.o)
 .bss._ulTickCount
                0x20002a64        0x4 C:/sloeber-workspace/Samd51_DmaTest/Release/arduino.ar(delay.c.o)
 .bss._ZGVZ12PluggableUSBvE3obj
                0x20002a68        0x4 C:/sloeber-workspace/Samd51_DmaTest/Release/arduino.ar(PluggableUSB.cpp.o)
 .bss._ZZ12PluggableUSBvE3obj
                0x20002a6c        0x8 C:/sloeber-workspace/Samd51_DmaTest/Release/arduino.ar(PluggableUSB.cpp.o)
 .bss.__malloc_free_list
                0x20002a74        0x4 c:/sloeber/arduinoplugin/packages/arduino/tools/arm-none-eabi-gcc/7-2017q4/bin/../lib/gcc/arm-none-eabi/7.2.1/../../../../arm-none-eabi/lib/thumb/v7e-m/fpv4-sp/hard\libc_nano.a(lib_a-nano-mallocr.o)
                0x20002a74                __malloc_free_list
 .bss.__malloc_sbrk_start
                0x20002a78        0x4 c:/sloeber/arduinoplugin/packages/arduino/tools/arm-none-eabi-gcc/7-2017q4/bin/../lib/gcc/arm-none-eabi/7.2.1/../../../../arm-none-eabi/lib/thumb/v7e-m/fpv4-sp/hard\libc_nano.a(lib_a-nano-mallocr.o)
                0x20002a78                __malloc_sbrk_start
 .bss.heap_end.5377
                0x20002a7c        0x4 c:/sloeber/arduinoplugin/packages/arduino/tools/arm-none-eabi-gcc/7-2017q4/bin/../lib/gcc/arm-none-eabi/7.2.1/../../../../arm-none-eabi/lib/thumb/v7e-m/fpv4-sp/hard\libnosys.a(sbrk.o)
 *(COMMON)
 COMMON         0x20002a80        0x4 c:/sloeber/arduinoplugin/packages/arduino/tools/arm-none-eabi-gcc/7-2017q4/bin/../lib/gcc/arm-none-eabi/7.2.1/../../../../arm-none-eabi/lib/thumb/v7e-m/fpv4-sp/hard\libc_nano.a(lib_a-reent.o)
                0x20002a80                errno
                0x20002a84                . = ALIGN (0x4)
                0x20002a84                __bss_end__ = .

.heap           0x20002a84        0x0
                0x20002a84                __end__ = .
                0x20002a84                PROVIDE (end, .)
 *(.heap*)
                0x20002a84                __HeapLimit = .

.stack_dummy    0x20002a84        0x0
 *(.stack*)
                0x20030000                __StackTop = (ORIGIN (RAM) + LENGTH (RAM))
                0x20030000                __StackLimit = (__StackTop - SIZEOF (.stack_dummy))
                0x20030000                PROVIDE (__stack, __StackTop)
                0x2002ffff                __ram_end__ = ((ORIGIN (RAM) + LENGTH (RAM)) - 0x1)
                0x00000001                ASSERT ((__StackLimit >= __HeapLimit), region RAM overflowed with stack)
OUTPUT(C:/sloeber-workspace/Samd51_DmaTest/Release/Samd51_DmaTest.elf elf32-littlearm)

.ARM.attributes
                0x00000000       0x30
 .ARM.attributes
                0x00000000       0x22 c:/sloeber/arduinoplugin/packages/arduino/tools/arm-none-eabi-gcc/7-2017q4/bin/../lib/gcc/arm-none-eabi/7.2.1/thumb/v7e-m/fpv4-sp/hard/crti.o
 .ARM.attributes
                0x00000022       0x34 c:/sloeber/arduinoplugin/packages/arduino/tools/arm-none-eabi-gcc/7-2017q4/bin/../lib/gcc/arm-none-eabi/7.2.1/thumb/v7e-m/fpv4-sp/hard/crtbegin.o
 .ARM.attributes
                0x00000056       0x39 .\sloeber.ino.cpp.o
 .ARM.attributes
                0x0000008f       0x39 .\libraries\SPI\SPI.cpp.o
 .ARM.attributes
                0x000000c8       0x39 .\libraries\Adafruit_ZeroDMA\Adafruit_ZeroDMA.cpp.o
 .ARM.attributes
                0x00000101       0x39 .\core\variant\variant.cpp.o
 .ARM.attributes
                0x0000013a       0x39 C:/sloeber-workspace/Samd51_DmaTest/Release/arduino.ar(CDC.cpp.o)
 .ARM.attributes
                0x00000173       0x39 C:/sloeber-workspace/Samd51_DmaTest/Release/arduino.ar(USBCore.cpp.o)
 .ARM.attributes
                0x000001ac       0x39 C:/sloeber-workspace/Samd51_DmaTest/Release/arduino.ar(Print.cpp.o)
 .ARM.attributes
                0x000001e5       0x39 C:/sloeber-workspace/Samd51_DmaTest/Release/arduino.ar(Reset.cpp.o)
 .ARM.attributes
                0x0000021e       0x39 C:/sloeber-workspace/Samd51_DmaTest/Release/arduino.ar(SERCOM.cpp.o)
 .ARM.attributes
                0x00000257       0x39 C:/sloeber-workspace/Samd51_DmaTest/Release/arduino.ar(Uart.cpp.o)
 .ARM.attributes
                0x00000290       0x39 C:/sloeber-workspace/Samd51_DmaTest/Release/arduino.ar(cortex_handlers.c.o)
 .ARM.attributes
                0x000002c9       0x39 C:/sloeber-workspace/Samd51_DmaTest/Release/arduino.ar(delay.c.o)
 .ARM.attributes
                0x00000302       0x39 C:/sloeber-workspace/Samd51_DmaTest/Release/arduino.ar(hooks.c.o)
 .ARM.attributes
                0x0000033b       0x39 C:/sloeber-workspace/Samd51_DmaTest/Release/arduino.ar(main.cpp.o)
 .ARM.attributes
                0x00000374       0x39 C:/sloeber-workspace/Samd51_DmaTest/Release/arduino.ar(new.cpp.o)
 .ARM.attributes
                0x000003ad       0x39 C:/sloeber-workspace/Samd51_DmaTest/Release/arduino.ar(startup.c.o)
 .ARM.attributes
                0x000003e6       0x39 C:/sloeber-workspace/Samd51_DmaTest/Release/arduino.ar(wiring.c.o)
 .ARM.attributes
                0x0000041f       0x39 C:/sloeber-workspace/Samd51_DmaTest/Release/arduino.ar(wiring_analog.c.o)
 .ARM.attributes
                0x00000458       0x39 C:/sloeber-workspace/Samd51_DmaTest/Release/arduino.ar(wiring_digital.c.o)
 .ARM.attributes
                0x00000491       0x39 C:/sloeber-workspace/Samd51_DmaTest/Release/arduino.ar(wiring_private.c.o)
 .ARM.attributes
                0x000004ca       0x39 C:/sloeber-workspace/Samd51_DmaTest/Release/arduino.ar(PluggableUSB.cpp.o)
 .ARM.attributes
                0x00000503       0x39 C:/sloeber-workspace/Samd51_DmaTest/Release/arduino.ar(SAMD21_USBDevice.cpp.o)
 .ARM.attributes
                0x0000053c       0x34 c:/sloeber/arduinoplugin/packages/arduino/tools/arm-none-eabi-gcc/7-2017q4/bin/../lib/gcc/arm-none-eabi/7.2.1/../../../../arm-none-eabi/lib/thumb/v7e-m/fpv4-sp/hard\libc_nano.a(lib_a-assert.o)
 .ARM.attributes
                0x00000570       0x34 c:/sloeber/arduinoplugin/packages/arduino/tools/arm-none-eabi-gcc/7-2017q4/bin/../lib/gcc/arm-none-eabi/7.2.1/../../../../arm-none-eabi/lib/thumb/v7e-m/fpv4-sp/hard\libc_nano.a(lib_a-fprintf.o)
 .ARM.attributes
                0x000005a4       0x34 c:/sloeber/arduinoplugin/packages/arduino/tools/arm-none-eabi-gcc/7-2017q4/bin/../lib/gcc/arm-none-eabi/7.2.1/../../../../arm-none-eabi/lib/thumb/v7e-m/fpv4-sp/hard\libc_nano.a(lib_a-impure.o)
 .ARM.attributes
                0x000005d8       0x34 c:/sloeber/arduinoplugin/packages/arduino/tools/arm-none-eabi-gcc/7-2017q4/bin/../lib/gcc/arm-none-eabi/7.2.1/../../../../arm-none-eabi/lib/thumb/v7e-m/fpv4-sp/hard\libc_nano.a(lib_a-init.o)
 .ARM.attributes
                0x0000060c       0x34 c:/sloeber/arduinoplugin/packages/arduino/tools/arm-none-eabi-gcc/7-2017q4/bin/../lib/gcc/arm-none-eabi/7.2.1/../../../../arm-none-eabi/lib/thumb/v7e-m/fpv4-sp/hard\libc_nano.a(lib_a-malloc.o)
 .ARM.attributes
                0x00000640       0x34 c:/sloeber/arduinoplugin/packages/arduino/tools/arm-none-eabi-gcc/7-2017q4/bin/../lib/gcc/arm-none-eabi/7.2.1/../../../../arm-none-eabi/lib/thumb/v7e-m/fpv4-sp/hard\libc_nano.a(lib_a-memcpy-stub.o)
 .ARM.attributes
                0x00000674       0x34 c:/sloeber/arduinoplugin/packages/arduino/tools/arm-none-eabi-gcc/7-2017q4/bin/../lib/gcc/arm-none-eabi/7.2.1/../../../../arm-none-eabi/lib/thumb/v7e-m/fpv4-sp/hard\libc_nano.a(lib_a-memset.o)
 .ARM.attributes
                0x000006a8       0x34 c:/sloeber/arduinoplugin/packages/arduino/tools/arm-none-eabi-gcc/7-2017q4/bin/../lib/gcc/arm-none-eabi/7.2.1/../../../../arm-none-eabi/lib/thumb/v7e-m/fpv4-sp/hard\libc_nano.a(lib_a-nano-freer.o)
 .ARM.attributes
                0x000006dc       0x34 c:/sloeber/arduinoplugin/packages/arduino/tools/arm-none-eabi-gcc/7-2017q4/bin/../lib/gcc/arm-none-eabi/7.2.1/../../../../arm-none-eabi/lib/thumb/v7e-m/fpv4-sp/hard\libc_nano.a(lib_a-nano-mallocr.o)
 .ARM.attributes
                0x00000710       0x34 c:/sloeber/arduinoplugin/packages/arduino/tools/arm-none-eabi-gcc/7-2017q4/bin/../lib/gcc/arm-none-eabi/7.2.1/../../../../arm-none-eabi/lib/thumb/v7e-m/fpv4-sp/hard\libc_nano.a(lib_a-nano-vfprintf.o)
 .ARM.attributes
                0x00000744       0x34 c:/sloeber/arduinoplugin/packages/arduino/tools/arm-none-eabi-gcc/7-2017q4/bin/../lib/gcc/arm-none-eabi/7.2.1/../../../../arm-none-eabi/lib/thumb/v7e-m/fpv4-sp/hard\libc_nano.a(lib_a-nano-vfprintf_i.o)
 .ARM.attributes
                0x00000778       0x34 c:/sloeber/arduinoplugin/packages/arduino/tools/arm-none-eabi-gcc/7-2017q4/bin/../lib/gcc/arm-none-eabi/7.2.1/../../../../arm-none-eabi/lib/thumb/v7e-m/fpv4-sp/hard\libc_nano.a(lib_a-sbrkr.o)
 .ARM.attributes
                0x000007ac       0x1b c:/sloeber/arduinoplugin/packages/arduino/tools/arm-none-eabi-gcc/7-2017q4/bin/../lib/gcc/arm-none-eabi/7.2.1/../../../../arm-none-eabi/lib/thumb/v7e-m/fpv4-sp/hard\libc_nano.a(lib_a-strlen.o)
 .ARM.attributes
                0x000007c7       0x34 c:/sloeber/arduinoplugin/packages/arduino/tools/arm-none-eabi-gcc/7-2017q4/bin/../lib/gcc/arm-none-eabi/7.2.1/../../../../arm-none-eabi/lib/thumb/v7e-m/fpv4-sp/hard\libc_nano.a(lib_a-wbuf.o)
 .ARM.attributes
                0x000007fb       0x34 c:/sloeber/arduinoplugin/packages/arduino/tools/arm-none-eabi-gcc/7-2017q4/bin/../lib/gcc/arm-none-eabi/7.2.1/../../../../arm-none-eabi/lib/thumb/v7e-m/fpv4-sp/hard\libc_nano.a(lib_a-wsetup.o)
 .ARM.attributes
                0x0000082f       0x34 c:/sloeber/arduinoplugin/packages/arduino/tools/arm-none-eabi-gcc/7-2017q4/bin/../lib/gcc/arm-none-eabi/7.2.1/../../../../arm-none-eabi/lib/thumb/v7e-m/fpv4-sp/hard\libc_nano.a(lib_a-abort.o)
 .ARM.attributes
                0x00000863       0x34 c:/sloeber/arduinoplugin/packages/arduino/tools/arm-none-eabi-gcc/7-2017q4/bin/../lib/gcc/arm-none-eabi/7.2.1/../../../../arm-none-eabi/lib/thumb/v7e-m/fpv4-sp/hard\libc_nano.a(lib_a-fflush.o)
 .ARM.attributes
                0x00000897       0x34 c:/sloeber/arduinoplugin/packages/arduino/tools/arm-none-eabi-gcc/7-2017q4/bin/../lib/gcc/arm-none-eabi/7.2.1/../../../../arm-none-eabi/lib/thumb/v7e-m/fpv4-sp/hard\libc_nano.a(lib_a-findfp.o)
 .ARM.attributes
                0x000008cb       0x34 c:/sloeber/arduinoplugin/packages/arduino/tools/arm-none-eabi-gcc/7-2017q4/bin/../lib/gcc/arm-none-eabi/7.2.1/../../../../arm-none-eabi/lib/thumb/v7e-m/fpv4-sp/hard\libc_nano.a(lib_a-fwalk.o)
 .ARM.attributes
                0x000008ff       0x34 c:/sloeber/arduinoplugin/packages/arduino/tools/arm-none-eabi-gcc/7-2017q4/bin/../lib/gcc/arm-none-eabi/7.2.1/../../../../arm-none-eabi/lib/thumb/v7e-m/fpv4-sp/hard\libc_nano.a(lib_a-makebuf.o)
 .ARM.attributes
                0x00000933       0x20 c:/sloeber/arduinoplugin/packages/arduino/tools/arm-none-eabi-gcc/7-2017q4/bin/../lib/gcc/arm-none-eabi/7.2.1/../../../../arm-none-eabi/lib/thumb/v7e-m/fpv4-sp/hard\libc_nano.a(lib_a-memchr.o)
 .ARM.attributes
                0x00000953       0x34 c:/sloeber/arduinoplugin/packages/arduino/tools/arm-none-eabi-gcc/7-2017q4/bin/../lib/gcc/arm-none-eabi/7.2.1/../../../../arm-none-eabi/lib/thumb/v7e-m/fpv4-sp/hard\libc_nano.a(lib_a-mlock.o)
 .ARM.attributes
                0x00000987       0x34 c:/sloeber/arduinoplugin/packages/arduino/tools/arm-none-eabi-gcc/7-2017q4/bin/../lib/gcc/arm-none-eabi/7.2.1/../../../../arm-none-eabi/lib/thumb/v7e-m/fpv4-sp/hard\libc_nano.a(lib_a-reent.o)
 .ARM.attributes
                0x000009bb       0x34 c:/sloeber/arduinoplugin/packages/arduino/tools/arm-none-eabi-gcc/7-2017q4/bin/../lib/gcc/arm-none-eabi/7.2.1/../../../../arm-none-eabi/lib/thumb/v7e-m/fpv4-sp/hard\libc_nano.a(lib_a-signal.o)
 .ARM.attributes
                0x000009ef       0x34 c:/sloeber/arduinoplugin/packages/arduino/tools/arm-none-eabi-gcc/7-2017q4/bin/../lib/gcc/arm-none-eabi/7.2.1/../../../../arm-none-eabi/lib/thumb/v7e-m/fpv4-sp/hard\libc_nano.a(lib_a-signalr.o)
 .ARM.attributes
                0x00000a23       0x34 c:/sloeber/arduinoplugin/packages/arduino/tools/arm-none-eabi-gcc/7-2017q4/bin/../lib/gcc/arm-none-eabi/7.2.1/../../../../arm-none-eabi/lib/thumb/v7e-m/fpv4-sp/hard\libc_nano.a(lib_a-stdio.o)
 .ARM.attributes
                0x00000a57       0x34 c:/sloeber/arduinoplugin/packages/arduino/tools/arm-none-eabi-gcc/7-2017q4/bin/../lib/gcc/arm-none-eabi/7.2.1/../../../../arm-none-eabi/lib/thumb/v7e-m/fpv4-sp/hard\libc_nano.a(lib_a-writer.o)
 .ARM.attributes
                0x00000a8b       0x34 c:/sloeber/arduinoplugin/packages/arduino/tools/arm-none-eabi-gcc/7-2017q4/bin/../lib/gcc/arm-none-eabi/7.2.1/../../../../arm-none-eabi/lib/thumb/v7e-m/fpv4-sp/hard\libc_nano.a(lib_a-closer.o)
 .ARM.attributes
                0x00000abf       0x34 c:/sloeber/arduinoplugin/packages/arduino/tools/arm-none-eabi-gcc/7-2017q4/bin/../lib/gcc/arm-none-eabi/7.2.1/../../../../arm-none-eabi/lib/thumb/v7e-m/fpv4-sp/hard\libc_nano.a(lib_a-fstatr.o)
 .ARM.attributes
                0x00000af3       0x34 c:/sloeber/arduinoplugin/packages/arduino/tools/arm-none-eabi-gcc/7-2017q4/bin/../lib/gcc/arm-none-eabi/7.2.1/../../../../arm-none-eabi/lib/thumb/v7e-m/fpv4-sp/hard\libc_nano.a(lib_a-isattyr.o)
 .ARM.attributes
                0x00000b27       0x34 c:/sloeber/arduinoplugin/packages/arduino/tools/arm-none-eabi-gcc/7-2017q4/bin/../lib/gcc/arm-none-eabi/7.2.1/../../../../arm-none-eabi/lib/thumb/v7e-m/fpv4-sp/hard\libc_nano.a(lib_a-lseekr.o)
 .ARM.attributes
                0x00000b5b       0x34 c:/sloeber/arduinoplugin/packages/arduino/tools/arm-none-eabi-gcc/7-2017q4/bin/../lib/gcc/arm-none-eabi/7.2.1/../../../../arm-none-eabi/lib/thumb/v7e-m/fpv4-sp/hard\libc_nano.a(lib_a-readr.o)
 .ARM.attributes
                0x00000b8f       0x34 c:/sloeber/arduinoplugin/packages/arduino/tools/arm-none-eabi-gcc/7-2017q4/bin/../lib/gcc/arm-none-eabi/7.2.1/../../../../arm-none-eabi/lib/thumb/v7e-m/fpv4-sp/hard\libnosys.a(close.o)
 .ARM.attributes
                0x00000bc3       0x34 c:/sloeber/arduinoplugin/packages/arduino/tools/arm-none-eabi-gcc/7-2017q4/bin/../lib/gcc/arm-none-eabi/7.2.1/../../../../arm-none-eabi/lib/thumb/v7e-m/fpv4-sp/hard\libnosys.a(fstat.o)
 .ARM.attributes
                0x00000bf7       0x34 c:/sloeber/arduinoplugin/packages/arduino/tools/arm-none-eabi-gcc/7-2017q4/bin/../lib/gcc/arm-none-eabi/7.2.1/../../../../arm-none-eabi/lib/thumb/v7e-m/fpv4-sp/hard\libnosys.a(getpid.o)
 .ARM.attributes
                0x00000c2b       0x34 c:/sloeber/arduinoplugin/packages/arduino/tools/arm-none-eabi-gcc/7-2017q4/bin/../lib/gcc/arm-none-eabi/7.2.1/../../../../arm-none-eabi/lib/thumb/v7e-m/fpv4-sp/hard\libnosys.a(isatty.o)
 .ARM.attributes
                0x00000c5f       0x34 c:/sloeber/arduinoplugin/packages/arduino/tools/arm-none-eabi-gcc/7-2017q4/bin/../lib/gcc/arm-none-eabi/7.2.1/../../../../arm-none-eabi/lib/thumb/v7e-m/fpv4-sp/hard\libnosys.a(kill.o)
 .ARM.attributes
                0x00000c93       0x34 c:/sloeber/arduinoplugin/packages/arduino/tools/arm-none-eabi-gcc/7-2017q4/bin/../lib/gcc/arm-none-eabi/7.2.1/../../../../arm-none-eabi/lib/thumb/v7e-m/fpv4-sp/hard\libnosys.a(lseek.o)
 .ARM.attributes
                0x00000cc7       0x34 c:/sloeber/arduinoplugin/packages/arduino/tools/arm-none-eabi-gcc/7-2017q4/bin/../lib/gcc/arm-none-eabi/7.2.1/../../../../arm-none-eabi/lib/thumb/v7e-m/fpv4-sp/hard\libnosys.a(read.o)
 .ARM.attributes
                0x00000cfb       0x34 c:/sloeber/arduinoplugin/packages/arduino/tools/arm-none-eabi-gcc/7-2017q4/bin/../lib/gcc/arm-none-eabi/7.2.1/../../../../arm-none-eabi/lib/thumb/v7e-m/fpv4-sp/hard\libnosys.a(sbrk.o)
 .ARM.attributes
                0x00000d2f       0x34 c:/sloeber/arduinoplugin/packages/arduino/tools/arm-none-eabi-gcc/7-2017q4/bin/../lib/gcc/arm-none-eabi/7.2.1/../../../../arm-none-eabi/lib/thumb/v7e-m/fpv4-sp/hard\libnosys.a(write.o)
 .ARM.attributes
                0x00000d63       0x34 c:/sloeber/arduinoplugin/packages/arduino/tools/arm-none-eabi-gcc/7-2017q4/bin/../lib/gcc/arm-none-eabi/7.2.1/../../../../arm-none-eabi/lib/thumb/v7e-m/fpv4-sp/hard\libnosys.a(_exit.o)
 .ARM.attributes
                0x00000d97       0x34 c:/sloeber/arduinoplugin/packages/arduino/tools/arm-none-eabi-gcc/7-2017q4/bin/../lib/gcc/arm-none-eabi/7.2.1/thumb/v7e-m/fpv4-sp/hard/crtend.o
 .ARM.attributes
                0x00000dcb       0x22 c:/sloeber/arduinoplugin/packages/arduino/tools/arm-none-eabi-gcc/7-2017q4/bin/../lib/gcc/arm-none-eabi/7.2.1/thumb/v7e-m/fpv4-sp/hard/crtn.o

.comment        0x00000000       0x7e
 .comment       0x00000000       0x7e .\sloeber.ino.cpp.o
                                 0x7f (size before relaxing)
 .comment       0x0000007e       0x7f .\libraries\SPI\SPI.cpp.o
 .comment       0x0000007e       0x7f .\libraries\Adafruit_ZeroDMA\Adafruit_ZeroDMA.cpp.o
 .comment       0x0000007e       0x7f .\core\variant\variant.cpp.o
 .comment       0x0000007e       0x7f C:/sloeber-workspace/Samd51_DmaTest/Release/arduino.ar(CDC.cpp.o)
 .comment       0x0000007e       0x7f C:/sloeber-workspace/Samd51_DmaTest/Release/arduino.ar(USBCore.cpp.o)
 .comment       0x0000007e       0x7f C:/sloeber-workspace/Samd51_DmaTest/Release/arduino.ar(Print.cpp.o)
 .comment       0x0000007e       0x7f C:/sloeber-workspace/Samd51_DmaTest/Release/arduino.ar(Reset.cpp.o)
 .comment       0x0000007e       0x7f C:/sloeber-workspace/Samd51_DmaTest/Release/arduino.ar(SERCOM.cpp.o)
 .comment       0x0000007e       0x7f C:/sloeber-workspace/Samd51_DmaTest/Release/arduino.ar(Uart.cpp.o)
 .comment       0x0000007e       0x7f C:/sloeber-workspace/Samd51_DmaTest/Release/arduino.ar(cortex_handlers.c.o)
 .comment       0x0000007e       0x7f C:/sloeber-workspace/Samd51_DmaTest/Release/arduino.ar(delay.c.o)
 .comment       0x0000007e       0x7f C:/sloeber-workspace/Samd51_DmaTest/Release/arduino.ar(hooks.c.o)
 .comment       0x0000007e       0x7f C:/sloeber-workspace/Samd51_DmaTest/Release/arduino.ar(main.cpp.o)
 .comment       0x0000007e       0x7f C:/sloeber-workspace/Samd51_DmaTest/Release/arduino.ar(new.cpp.o)
 .comment       0x0000007e       0x7f C:/sloeber-workspace/Samd51_DmaTest/Release/arduino.ar(startup.c.o)
 .comment       0x0000007e       0x7f C:/sloeber-workspace/Samd51_DmaTest/Release/arduino.ar(wiring.c.o)
 .comment       0x0000007e       0x7f C:/sloeber-workspace/Samd51_DmaTest/Release/arduino.ar(wiring_analog.c.o)
 .comment       0x0000007e       0x7f C:/sloeber-workspace/Samd51_DmaTest/Release/arduino.ar(wiring_digital.c.o)
 .comment       0x0000007e       0x7f C:/sloeber-workspace/Samd51_DmaTest/Release/arduino.ar(wiring_private.c.o)
 .comment       0x0000007e       0x7f C:/sloeber-workspace/Samd51_DmaTest/Release/arduino.ar(PluggableUSB.cpp.o)
 .comment       0x0000007e       0x7f C:/sloeber-workspace/Samd51_DmaTest/Release/arduino.ar(SAMD21_USBDevice.cpp.o)

.debug_info     0x00000000    0x75ef0
 .debug_info    0x00000000     0x62e9 .\sloeber.ino.cpp.o
 .debug_info    0x000062e9     0x7482 .\libraries\SPI\SPI.cpp.o
 .debug_info    0x0000d76b     0x83f9 .\libraries\Adafruit_ZeroDMA\Adafruit_ZeroDMA.cpp.o
 .debug_info    0x00015b64     0x6bf1 .\core\variant\variant.cpp.o
 .debug_info    0x0001c755     0x74e3 C:/sloeber-workspace/Samd51_DmaTest/Release/arduino.ar(CDC.cpp.o)
 .debug_info    0x00023c38     0xcc02 C:/sloeber-workspace/Samd51_DmaTest/Release/arduino.ar(USBCore.cpp.o)
 .debug_info    0x0003083a     0x795a C:/sloeber-workspace/Samd51_DmaTest/Release/arduino.ar(Print.cpp.o)
 .debug_info    0x00038194     0x5326 C:/sloeber-workspace/Samd51_DmaTest/Release/arduino.ar(Reset.cpp.o)
 .debug_info    0x0003d4ba     0x6ba5 C:/sloeber-workspace/Samd51_DmaTest/Release/arduino.ar(SERCOM.cpp.o)
 .debug_info    0x0004405f     0x86a6 C:/sloeber-workspace/Samd51_DmaTest/Release/arduino.ar(Uart.cpp.o)
 .debug_info    0x0004c705     0x1966 C:/sloeber-workspace/Samd51_DmaTest/Release/arduino.ar(cortex_handlers.c.o)
 .debug_info    0x0004e06b     0x169e C:/sloeber-workspace/Samd51_DmaTest/Release/arduino.ar(delay.c.o)
 .debug_info    0x0004f709       0x64 C:/sloeber-workspace/Samd51_DmaTest/Release/arduino.ar(hooks.c.o)
 .debug_info    0x0004f76d     0x514b C:/sloeber-workspace/Samd51_DmaTest/Release/arduino.ar(main.cpp.o)
 .debug_info    0x000548b8      0xf3b C:/sloeber-workspace/Samd51_DmaTest/Release/arduino.ar(new.cpp.o)
 .debug_info    0x000557f3     0x7483 C:/sloeber-workspace/Samd51_DmaTest/Release/arduino.ar(startup.c.o)
 .debug_info    0x0005cc76     0x3b3b C:/sloeber-workspace/Samd51_DmaTest/Release/arduino.ar(wiring.c.o)
 .debug_info    0x000607b1     0x6283 C:/sloeber-workspace/Samd51_DmaTest/Release/arduino.ar(wiring_analog.c.o)
 .debug_info    0x00066a34     0x197d C:/sloeber-workspace/Samd51_DmaTest/Release/arduino.ar(wiring_digital.c.o)
 .debug_info    0x000683b1     0x191e C:/sloeber-workspace/Samd51_DmaTest/Release/arduino.ar(wiring_private.c.o)
 .debug_info    0x00069ccf     0x558c C:/sloeber-workspace/Samd51_DmaTest/Release/arduino.ar(PluggableUSB.cpp.o)
 .debug_info    0x0006f25b     0x6c95 C:/sloeber-workspace/Samd51_DmaTest/Release/arduino.ar(SAMD21_USBDevice.cpp.o)

.debug_abbrev   0x00000000     0x81f5
 .debug_abbrev  0x00000000      0x7d0 .\sloeber.ino.cpp.o
 .debug_abbrev  0x000007d0      0x9aa .\libraries\SPI\SPI.cpp.o
 .debug_abbrev  0x0000117a      0x8db .\libraries\Adafruit_ZeroDMA\Adafruit_ZeroDMA.cpp.o
 .debug_abbrev  0x00001a55      0x539 .\core\variant\variant.cpp.o
 .debug_abbrev  0x00001f8e      0x8ce C:/sloeber-workspace/Samd51_DmaTest/Release/arduino.ar(CDC.cpp.o)
 .debug_abbrev  0x0000285c      0xbfe C:/sloeber-workspace/Samd51_DmaTest/Release/arduino.ar(USBCore.cpp.o)
 .debug_abbrev  0x0000345a      0x8c5 C:/sloeber-workspace/Samd51_DmaTest/Release/arduino.ar(Print.cpp.o)
 .debug_abbrev  0x00003d1f      0x632 C:/sloeber-workspace/Samd51_DmaTest/Release/arduino.ar(Reset.cpp.o)
 .debug_abbrev  0x00004351      0x83d C:/sloeber-workspace/Samd51_DmaTest/Release/arduino.ar(SERCOM.cpp.o)
 .debug_abbrev  0x00004b8e      0x93a C:/sloeber-workspace/Samd51_DmaTest/Release/arduino.ar(Uart.cpp.o)
 .debug_abbrev  0x000054c8      0x30c C:/sloeber-workspace/Samd51_DmaTest/Release/arduino.ar(cortex_handlers.c.o)
 .debug_abbrev  0x000057d4      0x2fc C:/sloeber-workspace/Samd51_DmaTest/Release/arduino.ar(delay.c.o)
 .debug_abbrev  0x00005ad0       0x49 C:/sloeber-workspace/Samd51_DmaTest/Release/arduino.ar(hooks.c.o)
 .debug_abbrev  0x00005b19      0x5dc C:/sloeber-workspace/Samd51_DmaTest/Release/arduino.ar(main.cpp.o)
 .debug_abbrev  0x000060f5      0x304 C:/sloeber-workspace/Samd51_DmaTest/Release/arduino.ar(new.cpp.o)
 .debug_abbrev  0x000063f9      0x2fb C:/sloeber-workspace/Samd51_DmaTest/Release/arduino.ar(startup.c.o)
 .debug_abbrev  0x000066f4      0x397 C:/sloeber-workspace/Samd51_DmaTest/Release/arduino.ar(wiring.c.o)
 .debug_abbrev  0x00006a8b      0x462 C:/sloeber-workspace/Samd51_DmaTest/Release/arduino.ar(wiring_analog.c.o)
 .debug_abbrev  0x00006eed      0x330 C:/sloeber-workspace/Samd51_DmaTest/Release/arduino.ar(wiring_digital.c.o)
 .debug_abbrev  0x0000721d      0x303 C:/sloeber-workspace/Samd51_DmaTest/Release/arduino.ar(wiring_private.c.o)
 .debug_abbrev  0x00007520      0x6c8 C:/sloeber-workspace/Samd51_DmaTest/Release/arduino.ar(PluggableUSB.cpp.o)
 .debug_abbrev  0x00007be8      0x60d C:/sloeber-workspace/Samd51_DmaTest/Release/arduino.ar(SAMD21_USBDevice.cpp.o)

.debug_loc      0x00000000     0x78ca
 .debug_loc     0x00000000      0x11c .\sloeber.ino.cpp.o
 .debug_loc     0x0000011c      0xb55 .\libraries\SPI\SPI.cpp.o
 .debug_loc     0x00000c71      0x7af .\libraries\Adafruit_ZeroDMA\Adafruit_ZeroDMA.cpp.o
 .debug_loc     0x00001420       0x2a .\core\variant\variant.cpp.o
 .debug_loc     0x0000144a      0x4c8 C:/sloeber-workspace/Samd51_DmaTest/Release/arduino.ar(CDC.cpp.o)
 .debug_loc     0x00001912     0x25e8 C:/sloeber-workspace/Samd51_DmaTest/Release/arduino.ar(USBCore.cpp.o)
 .debug_loc     0x00003efa     0x141b C:/sloeber-workspace/Samd51_DmaTest/Release/arduino.ar(Print.cpp.o)
 .debug_loc     0x00005315       0x18 C:/sloeber-workspace/Samd51_DmaTest/Release/arduino.ar(Reset.cpp.o)
 .debug_loc     0x0000532d      0xd7d C:/sloeber-workspace/Samd51_DmaTest/Release/arduino.ar(SERCOM.cpp.o)
 .debug_loc     0x000060aa      0x8c1 C:/sloeber-workspace/Samd51_DmaTest/Release/arduino.ar(Uart.cpp.o)
 .debug_loc     0x0000696b       0x47 C:/sloeber-workspace/Samd51_DmaTest/Release/arduino.ar(cortex_handlers.c.o)
 .debug_loc     0x000069b2      0x15c C:/sloeber-workspace/Samd51_DmaTest/Release/arduino.ar(delay.c.o)
 .debug_loc     0x00006b0e       0x42 C:/sloeber-workspace/Samd51_DmaTest/Release/arduino.ar(new.cpp.o)
 .debug_loc     0x00006b50      0x17f C:/sloeber-workspace/Samd51_DmaTest/Release/arduino.ar(startup.c.o)
 .debug_loc     0x00006ccf       0xe3 C:/sloeber-workspace/Samd51_DmaTest/Release/arduino.ar(wiring.c.o)
 .debug_loc     0x00006db2      0x5bb C:/sloeber-workspace/Samd51_DmaTest/Release/arduino.ar(wiring_analog.c.o)
 .debug_loc     0x0000736d      0x186 C:/sloeber-workspace/Samd51_DmaTest/Release/arduino.ar(wiring_digital.c.o)
 .debug_loc     0x000074f3      0x163 C:/sloeber-workspace/Samd51_DmaTest/Release/arduino.ar(wiring_private.c.o)
 .debug_loc     0x00007656      0x1fb C:/sloeber-workspace/Samd51_DmaTest/Release/arduino.ar(PluggableUSB.cpp.o)
 .debug_loc     0x00007851       0x79 C:/sloeber-workspace/Samd51_DmaTest/Release/arduino.ar(SAMD21_USBDevice.cpp.o)

.debug_aranges  0x00000000      0xa60
 .debug_aranges
                0x00000000       0x38 .\sloeber.ino.cpp.o
 .debug_aranges
                0x00000038       0xf8 .\libraries\SPI\SPI.cpp.o
 .debug_aranges
                0x00000130       0xc0 .\libraries\Adafruit_ZeroDMA\Adafruit_ZeroDMA.cpp.o
 .debug_aranges
                0x000001f0       0x28 .\core\variant\variant.cpp.o
 .debug_aranges
                0x00000218       0xa0 C:/sloeber-workspace/Samd51_DmaTest/Release/arduino.ar(CDC.cpp.o)
 .debug_aranges
                0x000002b8      0x180 C:/sloeber-workspace/Samd51_DmaTest/Release/arduino.ar(USBCore.cpp.o)
 .debug_aranges
                0x00000438      0x110 C:/sloeber-workspace/Samd51_DmaTest/Release/arduino.ar(Print.cpp.o)
 .debug_aranges
                0x00000548       0x30 C:/sloeber-workspace/Samd51_DmaTest/Release/arduino.ar(Reset.cpp.o)
 .debug_aranges
                0x00000578      0x1f0 C:/sloeber-workspace/Samd51_DmaTest/Release/arduino.ar(SERCOM.cpp.o)
 .debug_aranges
                0x00000768       0xb0 C:/sloeber-workspace/Samd51_DmaTest/Release/arduino.ar(Uart.cpp.o)
 .debug_aranges
                0x00000818       0x40 C:/sloeber-workspace/Samd51_DmaTest/Release/arduino.ar(cortex_handlers.c.o)
 .debug_aranges
                0x00000858       0x40 C:/sloeber-workspace/Samd51_DmaTest/Release/arduino.ar(delay.c.o)
 .debug_aranges
                0x00000898       0x30 C:/sloeber-workspace/Samd51_DmaTest/Release/arduino.ar(hooks.c.o)
 .debug_aranges
                0x000008c8       0x28 C:/sloeber-workspace/Samd51_DmaTest/Release/arduino.ar(main.cpp.o)
 .debug_aranges
                0x000008f0       0x28 C:/sloeber-workspace/Samd51_DmaTest/Release/arduino.ar(new.cpp.o)
 .debug_aranges
                0x00000918       0x20 C:/sloeber-workspace/Samd51_DmaTest/Release/arduino.ar(startup.c.o)
 .debug_aranges
                0x00000938       0x20 C:/sloeber-workspace/Samd51_DmaTest/Release/arduino.ar(wiring.c.o)
 .debug_aranges
                0x00000958       0x40 C:/sloeber-workspace/Samd51_DmaTest/Release/arduino.ar(wiring_analog.c.o)
 .debug_aranges
                0x00000998       0x30 C:/sloeber-workspace/Samd51_DmaTest/Release/arduino.ar(wiring_digital.c.o)
 .debug_aranges
                0x000009c8       0x20 C:/sloeber-workspace/Samd51_DmaTest/Release/arduino.ar(wiring_private.c.o)
 .debug_aranges
                0x000009e8       0x50 C:/sloeber-workspace/Samd51_DmaTest/Release/arduino.ar(PluggableUSB.cpp.o)
 .debug_aranges
                0x00000a38       0x28 C:/sloeber-workspace/Samd51_DmaTest/Release/arduino.ar(SAMD21_USBDevice.cpp.o)

.debug_ranges   0x00000000     0x1220
 .debug_ranges  0x00000000       0xa8 .\sloeber.ino.cpp.o
 .debug_ranges  0x000000a8      0x108 .\libraries\SPI\SPI.cpp.o
 .debug_ranges  0x000001b0      0x190 .\libraries\Adafruit_ZeroDMA\Adafruit_ZeroDMA.cpp.o
 .debug_ranges  0x00000340       0x18 .\core\variant\variant.cpp.o
 .debug_ranges  0x00000358       0xa8 C:/sloeber-workspace/Samd51_DmaTest/Release/arduino.ar(CDC.cpp.o)
 .debug_ranges  0x00000400      0x638 C:/sloeber-workspace/Samd51_DmaTest/Release/arduino.ar(USBCore.cpp.o)
 .debug_ranges  0x00000a38      0x1d0 C:/sloeber-workspace/Samd51_DmaTest/Release/arduino.ar(Print.cpp.o)
 .debug_ranges  0x00000c08       0x20 C:/sloeber-workspace/Samd51_DmaTest/Release/arduino.ar(Reset.cpp.o)
 .debug_ranges  0x00000c28      0x280 C:/sloeber-workspace/Samd51_DmaTest/Release/arduino.ar(SERCOM.cpp.o)
 .debug_ranges  0x00000ea8      0x138 C:/sloeber-workspace/Samd51_DmaTest/Release/arduino.ar(Uart.cpp.o)
 .debug_ranges  0x00000fe0       0x30 C:/sloeber-workspace/Samd51_DmaTest/Release/arduino.ar(cortex_handlers.c.o)
 .debug_ranges  0x00001010       0x30 C:/sloeber-workspace/Samd51_DmaTest/Release/arduino.ar(delay.c.o)
 .debug_ranges  0x00001040       0x20 C:/sloeber-workspace/Samd51_DmaTest/Release/arduino.ar(hooks.c.o)
 .debug_ranges  0x00001060       0x18 C:/sloeber-workspace/Samd51_DmaTest/Release/arduino.ar(main.cpp.o)
 .debug_ranges  0x00001078       0x18 C:/sloeber-workspace/Samd51_DmaTest/Release/arduino.ar(new.cpp.o)
 .debug_ranges  0x00001090       0x10 C:/sloeber-workspace/Samd51_DmaTest/Release/arduino.ar(startup.c.o)
 .debug_ranges  0x000010a0       0x28 C:/sloeber-workspace/Samd51_DmaTest/Release/arduino.ar(wiring.c.o)
 .debug_ranges  0x000010c8       0x68 C:/sloeber-workspace/Samd51_DmaTest/Release/arduino.ar(wiring_analog.c.o)
 .debug_ranges  0x00001130       0x20 C:/sloeber-workspace/Samd51_DmaTest/Release/arduino.ar(wiring_digital.c.o)
 .debug_ranges  0x00001150       0x30 C:/sloeber-workspace/Samd51_DmaTest/Release/arduino.ar(wiring_private.c.o)
 .debug_ranges  0x00001180       0x88 C:/sloeber-workspace/Samd51_DmaTest/Release/arduino.ar(PluggableUSB.cpp.o)
 .debug_ranges  0x00001208       0x18 C:/sloeber-workspace/Samd51_DmaTest/Release/arduino.ar(SAMD21_USBDevice.cpp.o)

.debug_line     0x00000000     0xa472
 .debug_line    0x00000000      0xa48 .\sloeber.ino.cpp.o
 .debug_line    0x00000a48      0xb6b .\libraries\SPI\SPI.cpp.o
 .debug_line    0x000015b3      0xb24 .\libraries\Adafruit_ZeroDMA\Adafruit_ZeroDMA.cpp.o
 .debug_line    0x000020d7      0x5f2 .\core\variant\variant.cpp.o
 .debug_line    0x000026c9      0x82f C:/sloeber-workspace/Samd51_DmaTest/Release/arduino.ar(CDC.cpp.o)
 .debug_line    0x00002ef8     0x10b4 C:/sloeber-workspace/Samd51_DmaTest/Release/arduino.ar(USBCore.cpp.o)
 .debug_line    0x00003fac      0x9ab C:/sloeber-workspace/Samd51_DmaTest/Release/arduino.ar(Print.cpp.o)
 .debug_line    0x00004957      0x6c6 C:/sloeber-workspace/Samd51_DmaTest/Release/arduino.ar(Reset.cpp.o)
 .debug_line    0x0000501d      0xcdc C:/sloeber-workspace/Samd51_DmaTest/Release/arduino.ar(SERCOM.cpp.o)
 .debug_line    0x00005cf9      0x969 C:/sloeber-workspace/Samd51_DmaTest/Release/arduino.ar(Uart.cpp.o)
 .debug_line    0x00006662      0x3f1 C:/sloeber-workspace/Samd51_DmaTest/Release/arduino.ar(cortex_handlers.c.o)
 .debug_line    0x00006a53      0x555 C:/sloeber-workspace/Samd51_DmaTest/Release/arduino.ar(delay.c.o)
 .debug_line    0x00006fa8       0xa5 C:/sloeber-workspace/Samd51_DmaTest/Release/arduino.ar(hooks.c.o)
 .debug_line    0x0000704d      0x6c6 C:/sloeber-workspace/Samd51_DmaTest/Release/arduino.ar(main.cpp.o)
 .debug_line    0x00007713      0x33a C:/sloeber-workspace/Samd51_DmaTest/Release/arduino.ar(new.cpp.o)
 .debug_line    0x00007a4d      0x516 C:/sloeber-workspace/Samd51_DmaTest/Release/arduino.ar(startup.c.o)
 .debug_line    0x00007f63      0x551 C:/sloeber-workspace/Samd51_DmaTest/Release/arduino.ar(wiring.c.o)
 .debug_line    0x000084b4      0x788 C:/sloeber-workspace/Samd51_DmaTest/Release/arduino.ar(wiring_analog.c.o)
 .debug_line    0x00008c3c      0x511 C:/sloeber-workspace/Samd51_DmaTest/Release/arduino.ar(wiring_digital.c.o)
 .debug_line    0x0000914d      0x504 C:/sloeber-workspace/Samd51_DmaTest/Release/arduino.ar(wiring_private.c.o)
 .debug_line    0x00009651      0x768 C:/sloeber-workspace/Samd51_DmaTest/Release/arduino.ar(PluggableUSB.cpp.o)
 .debug_line    0x00009db9      0x6b9 C:/sloeber-workspace/Samd51_DmaTest/Release/arduino.ar(SAMD21_USBDevice.cpp.o)

.debug_str      0x00000000     0xd0ba
 .debug_str     0x00000000     0x4123 .\sloeber.ino.cpp.o
                               0x4b85 (size before relaxing)
 .debug_str     0x00004123      0x44c .\libraries\SPI\SPI.cpp.o
                               0x4f09 (size before relaxing)
 .debug_str     0x0000456f     0x14c8 .\libraries\Adafruit_ZeroDMA\Adafruit_ZeroDMA.cpp.o
                               0x5b2e (size before relaxing)
 .debug_str     0x00005a37      0x8fd .\core\variant\variant.cpp.o
                               0x3a9b (size before relaxing)
 .debug_str     0x00006334     0x1729 C:/sloeber-workspace/Samd51_DmaTest/Release/arduino.ar(CDC.cpp.o)
                               0x5218 (size before relaxing)
 .debug_str     0x00007a5d     0x2699 C:/sloeber-workspace/Samd51_DmaTest/Release/arduino.ar(USBCore.cpp.o)
                               0x7280 (size before relaxing)
 .debug_str     0x0000a0f6      0x3c2 C:/sloeber-workspace/Samd51_DmaTest/Release/arduino.ar(Print.cpp.o)
                               0x4985 (size before relaxing)
 .debug_str     0x0000a4b8       0x9c C:/sloeber-workspace/Samd51_DmaTest/Release/arduino.ar(Reset.cpp.o)
                               0x3a7d (size before relaxing)
 .debug_str     0x0000a554      0x228 C:/sloeber-workspace/Samd51_DmaTest/Release/arduino.ar(SERCOM.cpp.o)
                               0x4466 (size before relaxing)
 .debug_str     0x0000a77c      0x4ed C:/sloeber-workspace/Samd51_DmaTest/Release/arduino.ar(Uart.cpp.o)
                               0x5ac2 (size before relaxing)
 .debug_str     0x0000ac69      0xc7a C:/sloeber-workspace/Samd51_DmaTest/Release/arduino.ar(cortex_handlers.c.o)
                               0x188f (size before relaxing)
 .debug_str     0x0000b8e3      0x15f C:/sloeber-workspace/Samd51_DmaTest/Release/arduino.ar(delay.c.o)
                               0x1039 (size before relaxing)
 .debug_str     0x0000ba42       0x6d C:/sloeber-workspace/Samd51_DmaTest/Release/arduino.ar(hooks.c.o)
                                0x17b (size before relaxing)
 .debug_str     0x0000baaf       0xa9 C:/sloeber-workspace/Samd51_DmaTest/Release/arduino.ar(main.cpp.o)
                               0x3a10 (size before relaxing)
 .debug_str     0x0000bb58       0x86 C:/sloeber-workspace/Samd51_DmaTest/Release/arduino.ar(new.cpp.o)
                                0x7ef (size before relaxing)
 .debug_str     0x0000bbde      0xe98 C:/sloeber-workspace/Samd51_DmaTest/Release/arduino.ar(startup.c.o)
                               0x27c1 (size before relaxing)
 .debug_str     0x0000ca76      0x2eb C:/sloeber-workspace/Samd51_DmaTest/Release/arduino.ar(wiring.c.o)
                               0x201e (size before relaxing)
 .debug_str     0x0000cd61      0x12e C:/sloeber-workspace/Samd51_DmaTest/Release/arduino.ar(wiring_analog.c.o)
                               0x20bf (size before relaxing)
 .debug_str     0x0000ce8f       0x85 C:/sloeber-workspace/Samd51_DmaTest/Release/arduino.ar(wiring_digital.c.o)
                               0x10ad (size before relaxing)
 .debug_str     0x0000cf14       0x71 C:/sloeber-workspace/Samd51_DmaTest/Release/arduino.ar(wiring_private.c.o)
                               0x109a (size before relaxing)
 .debug_str     0x0000cf85       0x8a C:/sloeber-workspace/Samd51_DmaTest/Release/arduino.ar(PluggableUSB.cpp.o)
                               0x3ca0 (size before relaxing)
 .debug_str     0x0000d00f       0xab C:/sloeber-workspace/Samd51_DmaTest/Release/arduino.ar(SAMD21_USBDevice.cpp.o)
                               0x5526 (size before relaxing)

.debug_frame    0x00000000     0x2474
 .debug_frame   0x00000000       0xa8 .\sloeber.ino.cpp.o
 .debug_frame   0x000000a8      0x2f8 .\libraries\SPI\SPI.cpp.o
 .debug_frame   0x000003a0      0x234 .\libraries\Adafruit_ZeroDMA\Adafruit_ZeroDMA.cpp.o
 .debug_frame   0x000005d4       0x6c .\core\variant\variant.cpp.o
 .debug_frame   0x00000640      0x15c C:/sloeber-workspace/Samd51_DmaTest/Release/arduino.ar(CDC.cpp.o)
 .debug_frame   0x0000079c      0x490 C:/sloeber-workspace/Samd51_DmaTest/Release/arduino.ar(USBCore.cpp.o)
 .debug_frame   0x00000c2c      0x350 C:/sloeber-workspace/Samd51_DmaTest/Release/arduino.ar(Print.cpp.o)
 .debug_frame   0x00000f7c       0x40 C:/sloeber-workspace/Samd51_DmaTest/Release/arduino.ar(Reset.cpp.o)
 .debug_frame   0x00000fbc      0x484 C:/sloeber-workspace/Samd51_DmaTest/Release/arduino.ar(SERCOM.cpp.o)
 .debug_frame   0x00001440      0x1dc C:/sloeber-workspace/Samd51_DmaTest/Release/arduino.ar(Uart.cpp.o)
 .debug_frame   0x0000161c       0xa8 C:/sloeber-workspace/Samd51_DmaTest/Release/arduino.ar(cortex_handlers.c.o)
 .debug_frame   0x000016c4       0x7c C:/sloeber-workspace/Samd51_DmaTest/Release/arduino.ar(delay.c.o)
 .debug_frame   0x00001740       0x40 C:/sloeber-workspace/Samd51_DmaTest/Release/arduino.ar(hooks.c.o)
 .debug_frame   0x00001780       0x38 C:/sloeber-workspace/Samd51_DmaTest/Release/arduino.ar(main.cpp.o)
 .debug_frame   0x000017b8       0x50 C:/sloeber-workspace/Samd51_DmaTest/Release/arduino.ar(new.cpp.o)
 .debug_frame   0x00001808       0x20 C:/sloeber-workspace/Samd51_DmaTest/Release/arduino.ar(startup.c.o)
 .debug_frame   0x00001828       0x34 C:/sloeber-workspace/Samd51_DmaTest/Release/arduino.ar(wiring.c.o)
 .debug_frame   0x0000185c       0x8c C:/sloeber-workspace/Samd51_DmaTest/Release/arduino.ar(wiring_analog.c.o)
 .debug_frame   0x000018e8       0x54 C:/sloeber-workspace/Samd51_DmaTest/Release/arduino.ar(wiring_digital.c.o)
 .debug_frame   0x0000193c       0x2c C:/sloeber-workspace/Samd51_DmaTest/Release/arduino.ar(wiring_private.c.o)
 .debug_frame   0x00001968       0xbc C:/sloeber-workspace/Samd51_DmaTest/Release/arduino.ar(PluggableUSB.cpp.o)
 .debug_frame   0x00001a24       0x44 C:/sloeber-workspace/Samd51_DmaTest/Release/arduino.ar(SAMD21_USBDevice.cpp.o)
 .debug_frame   0x00001a68       0x40 c:/sloeber/arduinoplugin/packages/arduino/tools/arm-none-eabi-gcc/7-2017q4/bin/../lib/gcc/arm-none-eabi/7.2.1/../../../../arm-none-eabi/lib/thumb/v7e-m/fpv4-sp/hard\libc_nano.a(lib_a-assert.o)
 .debug_frame   0x00001aa8       0x64 c:/sloeber/arduinoplugin/packages/arduino/tools/arm-none-eabi-gcc/7-2017q4/bin/../lib/gcc/arm-none-eabi/7.2.1/../../../../arm-none-eabi/lib/thumb/v7e-m/fpv4-sp/hard\libc_nano.a(lib_a-fprintf.o)
 .debug_frame   0x00001b0c       0x2c c:/sloeber/arduinoplugin/packages/arduino/tools/arm-none-eabi-gcc/7-2017q4/bin/../lib/gcc/arm-none-eabi/7.2.1/../../../../arm-none-eabi/lib/thumb/v7e-m/fpv4-sp/hard\libc_nano.a(lib_a-init.o)
 .debug_frame   0x00001b38       0x30 c:/sloeber/arduinoplugin/packages/arduino/tools/arm-none-eabi-gcc/7-2017q4/bin/../lib/gcc/arm-none-eabi/7.2.1/../../../../arm-none-eabi/lib/thumb/v7e-m/fpv4-sp/hard\libc_nano.a(lib_a-malloc.o)
 .debug_frame   0x00001b68       0x28 c:/sloeber/arduinoplugin/packages/arduino/tools/arm-none-eabi-gcc/7-2017q4/bin/../lib/gcc/arm-none-eabi/7.2.1/../../../../arm-none-eabi/lib/thumb/v7e-m/fpv4-sp/hard\libc_nano.a(lib_a-memcpy-stub.o)
 .debug_frame   0x00001b90       0x20 c:/sloeber/arduinoplugin/packages/arduino/tools/arm-none-eabi-gcc/7-2017q4/bin/../lib/gcc/arm-none-eabi/7.2.1/../../../../arm-none-eabi/lib/thumb/v7e-m/fpv4-sp/hard\libc_nano.a(lib_a-memset.o)
 .debug_frame   0x00001bb0       0x38 c:/sloeber/arduinoplugin/packages/arduino/tools/arm-none-eabi-gcc/7-2017q4/bin/../lib/gcc/arm-none-eabi/7.2.1/../../../../arm-none-eabi/lib/thumb/v7e-m/fpv4-sp/hard\libc_nano.a(lib_a-nano-freer.o)
 .debug_frame   0x00001be8       0x2c c:/sloeber/arduinoplugin/packages/arduino/tools/arm-none-eabi-gcc/7-2017q4/bin/../lib/gcc/arm-none-eabi/7.2.1/../../../../arm-none-eabi/lib/thumb/v7e-m/fpv4-sp/hard\libc_nano.a(lib_a-nano-mallocr.o)
 .debug_frame   0x00001c14       0xac c:/sloeber/arduinoplugin/packages/arduino/tools/arm-none-eabi-gcc/7-2017q4/bin/../lib/gcc/arm-none-eabi/7.2.1/../../../../arm-none-eabi/lib/thumb/v7e-m/fpv4-sp/hard\libc_nano.a(lib_a-nano-vfprintf.o)
 .debug_frame   0x00001cc0       0x60 c:/sloeber/arduinoplugin/packages/arduino/tools/arm-none-eabi-gcc/7-2017q4/bin/../lib/gcc/arm-none-eabi/7.2.1/../../../../arm-none-eabi/lib/thumb/v7e-m/fpv4-sp/hard\libc_nano.a(lib_a-nano-vfprintf_i.o)
 .debug_frame   0x00001d20       0x2c c:/sloeber/arduinoplugin/packages/arduino/tools/arm-none-eabi-gcc/7-2017q4/bin/../lib/gcc/arm-none-eabi/7.2.1/../../../../arm-none-eabi/lib/thumb/v7e-m/fpv4-sp/hard\libc_nano.a(lib_a-sbrkr.o)
 .debug_frame   0x00001d4c       0x40 c:/sloeber/arduinoplugin/packages/arduino/tools/arm-none-eabi-gcc/7-2017q4/bin/../lib/gcc/arm-none-eabi/7.2.1/../../../../arm-none-eabi/lib/thumb/v7e-m/fpv4-sp/hard\libc_nano.a(lib_a-wbuf.o)
 .debug_frame   0x00001d8c       0x2c c:/sloeber/arduinoplugin/packages/arduino/tools/arm-none-eabi-gcc/7-2017q4/bin/../lib/gcc/arm-none-eabi/7.2.1/../../../../arm-none-eabi/lib/thumb/v7e-m/fpv4-sp/hard\libc_nano.a(lib_a-wsetup.o)
 .debug_frame   0x00001db8       0x28 c:/sloeber/arduinoplugin/packages/arduino/tools/arm-none-eabi-gcc/7-2017q4/bin/../lib/gcc/arm-none-eabi/7.2.1/../../../../arm-none-eabi/lib/thumb/v7e-m/fpv4-sp/hard\libc_nano.a(lib_a-abort.o)
 .debug_frame   0x00001de0       0x68 c:/sloeber/arduinoplugin/packages/arduino/tools/arm-none-eabi-gcc/7-2017q4/bin/../lib/gcc/arm-none-eabi/7.2.1/../../../../arm-none-eabi/lib/thumb/v7e-m/fpv4-sp/hard\libc_nano.a(lib_a-fflush.o)
 .debug_frame   0x00001e48      0x11c c:/sloeber/arduinoplugin/packages/arduino/tools/arm-none-eabi-gcc/7-2017q4/bin/../lib/gcc/arm-none-eabi/7.2.1/../../../../arm-none-eabi/lib/thumb/v7e-m/fpv4-sp/hard\libc_nano.a(lib_a-findfp.o)
 .debug_frame   0x00001f64       0x54 c:/sloeber/arduinoplugin/packages/arduino/tools/arm-none-eabi-gcc/7-2017q4/bin/../lib/gcc/arm-none-eabi/7.2.1/../../../../arm-none-eabi/lib/thumb/v7e-m/fpv4-sp/hard\libc_nano.a(lib_a-fwalk.o)
 .debug_frame   0x00001fb8       0x58 c:/sloeber/arduinoplugin/packages/arduino/tools/arm-none-eabi-gcc/7-2017q4/bin/../lib/gcc/arm-none-eabi/7.2.1/../../../../arm-none-eabi/lib/thumb/v7e-m/fpv4-sp/hard\libc_nano.a(lib_a-makebuf.o)
 .debug_frame   0x00002010       0x30 c:/sloeber/arduinoplugin/packages/arduino/tools/arm-none-eabi-gcc/7-2017q4/bin/../lib/gcc/arm-none-eabi/7.2.1/../../../../arm-none-eabi/lib/thumb/v7e-m/fpv4-sp/hard\libc_nano.a(lib_a-mlock.o)
 .debug_frame   0x00002040       0x5c c:/sloeber/arduinoplugin/packages/arduino/tools/arm-none-eabi-gcc/7-2017q4/bin/../lib/gcc/arm-none-eabi/7.2.1/../../../../arm-none-eabi/lib/thumb/v7e-m/fpv4-sp/hard\libc_nano.a(lib_a-reent.o)
 .debug_frame   0x0000209c       0xcc c:/sloeber/arduinoplugin/packages/arduino/tools/arm-none-eabi-gcc/7-2017q4/bin/../lib/gcc/arm-none-eabi/7.2.1/../../../../arm-none-eabi/lib/thumb/v7e-m/fpv4-sp/hard\libc_nano.a(lib_a-signal.o)
 .debug_frame   0x00002168       0x3c c:/sloeber/arduinoplugin/packages/arduino/tools/arm-none-eabi-gcc/7-2017q4/bin/../lib/gcc/arm-none-eabi/7.2.1/../../../../arm-none-eabi/lib/thumb/v7e-m/fpv4-sp/hard\libc_nano.a(lib_a-signalr.o)
 .debug_frame   0x000021a4       0x88 c:/sloeber/arduinoplugin/packages/arduino/tools/arm-none-eabi-gcc/7-2017q4/bin/../lib/gcc/arm-none-eabi/7.2.1/../../../../arm-none-eabi/lib/thumb/v7e-m/fpv4-sp/hard\libc_nano.a(lib_a-stdio.o)
 .debug_frame   0x0000222c       0x2c c:/sloeber/arduinoplugin/packages/arduino/tools/arm-none-eabi-gcc/7-2017q4/bin/../lib/gcc/arm-none-eabi/7.2.1/../../../../arm-none-eabi/lib/thumb/v7e-m/fpv4-sp/hard\libc_nano.a(lib_a-writer.o)
 .debug_frame   0x00002258       0x2c c:/sloeber/arduinoplugin/packages/arduino/tools/arm-none-eabi-gcc/7-2017q4/bin/../lib/gcc/arm-none-eabi/7.2.1/../../../../arm-none-eabi/lib/thumb/v7e-m/fpv4-sp/hard\libc_nano.a(lib_a-closer.o)
 .debug_frame   0x00002284       0x2c c:/sloeber/arduinoplugin/packages/arduino/tools/arm-none-eabi-gcc/7-2017q4/bin/../lib/gcc/arm-none-eabi/7.2.1/../../../../arm-none-eabi/lib/thumb/v7e-m/fpv4-sp/hard\libc_nano.a(lib_a-fstatr.o)
 .debug_frame   0x000022b0       0x2c c:/sloeber/arduinoplugin/packages/arduino/tools/arm-none-eabi-gcc/7-2017q4/bin/../lib/gcc/arm-none-eabi/7.2.1/../../../../arm-none-eabi/lib/thumb/v7e-m/fpv4-sp/hard\libc_nano.a(lib_a-isattyr.o)
 .debug_frame   0x000022dc       0x2c c:/sloeber/arduinoplugin/packages/arduino/tools/arm-none-eabi-gcc/7-2017q4/bin/../lib/gcc/arm-none-eabi/7.2.1/../../../../arm-none-eabi/lib/thumb/v7e-m/fpv4-sp/hard\libc_nano.a(lib_a-lseekr.o)
 .debug_frame   0x00002308       0x2c c:/sloeber/arduinoplugin/packages/arduino/tools/arm-none-eabi-gcc/7-2017q4/bin/../lib/gcc/arm-none-eabi/7.2.1/../../../../arm-none-eabi/lib/thumb/v7e-m/fpv4-sp/hard\libc_nano.a(lib_a-readr.o)
 .debug_frame   0x00002334       0x20 c:/sloeber/arduinoplugin/packages/arduino/tools/arm-none-eabi-gcc/7-2017q4/bin/../lib/gcc/arm-none-eabi/7.2.1/../../../../arm-none-eabi/lib/thumb/v7e-m/fpv4-sp/hard\libnosys.a(close.o)
 .debug_frame   0x00002354       0x20 c:/sloeber/arduinoplugin/packages/arduino/tools/arm-none-eabi-gcc/7-2017q4/bin/../lib/gcc/arm-none-eabi/7.2.1/../../../../arm-none-eabi/lib/thumb/v7e-m/fpv4-sp/hard\libnosys.a(fstat.o)
 .debug_frame   0x00002374       0x20 c:/sloeber/arduinoplugin/packages/arduino/tools/arm-none-eabi-gcc/7-2017q4/bin/../lib/gcc/arm-none-eabi/7.2.1/../../../../arm-none-eabi/lib/thumb/v7e-m/fpv4-sp/hard\libnosys.a(getpid.o)
 .debug_frame   0x00002394       0x20 c:/sloeber/arduinoplugin/packages/arduino/tools/arm-none-eabi-gcc/7-2017q4/bin/../lib/gcc/arm-none-eabi/7.2.1/../../../../arm-none-eabi/lib/thumb/v7e-m/fpv4-sp/hard\libnosys.a(isatty.o)
 .debug_frame   0x000023b4       0x20 c:/sloeber/arduinoplugin/packages/arduino/tools/arm-none-eabi-gcc/7-2017q4/bin/../lib/gcc/arm-none-eabi/7.2.1/../../../../arm-none-eabi/lib/thumb/v7e-m/fpv4-sp/hard\libnosys.a(kill.o)
 .debug_frame   0x000023d4       0x20 c:/sloeber/arduinoplugin/packages/arduino/tools/arm-none-eabi-gcc/7-2017q4/bin/../lib/gcc/arm-none-eabi/7.2.1/../../../../arm-none-eabi/lib/thumb/v7e-m/fpv4-sp/hard\libnosys.a(lseek.o)
 .debug_frame   0x000023f4       0x20 c:/sloeber/arduinoplugin/packages/arduino/tools/arm-none-eabi-gcc/7-2017q4/bin/../lib/gcc/arm-none-eabi/7.2.1/../../../../arm-none-eabi/lib/thumb/v7e-m/fpv4-sp/hard\libnosys.a(read.o)
 .debug_frame   0x00002414       0x20 c:/sloeber/arduinoplugin/packages/arduino/tools/arm-none-eabi-gcc/7-2017q4/bin/../lib/gcc/arm-none-eabi/7.2.1/../../../../arm-none-eabi/lib/thumb/v7e-m/fpv4-sp/hard\libnosys.a(sbrk.o)
 .debug_frame   0x00002434       0x20 c:/sloeber/arduinoplugin/packages/arduino/tools/arm-none-eabi-gcc/7-2017q4/bin/../lib/gcc/arm-none-eabi/7.2.1/../../../../arm-none-eabi/lib/thumb/v7e-m/fpv4-sp/hard\libnosys.a(write.o)
 .debug_frame   0x00002454       0x20 c:/sloeber/arduinoplugin/packages/arduino/tools/arm-none-eabi-gcc/7-2017q4/bin/../lib/gcc/arm-none-eabi/7.2.1/../../../../arm-none-eabi/lib/thumb/v7e-m/fpv4-sp/hard\libnosys.a(_exit.o)

.stab           0x00000000       0xcc
 .stab          0x00000000       0x24 c:/sloeber/arduinoplugin/packages/arduino/tools/arm-none-eabi-gcc/7-2017q4/bin/../lib/gcc/arm-none-eabi/7.2.1/../../../../arm-none-eabi/lib/thumb/v7e-m/fpv4-sp/hard\libnosys.a(close.o)
 .stab          0x00000024       0x18 c:/sloeber/arduinoplugin/packages/arduino/tools/arm-none-eabi-gcc/7-2017q4/bin/../lib/gcc/arm-none-eabi/7.2.1/../../../../arm-none-eabi/lib/thumb/v7e-m/fpv4-sp/hard\libnosys.a(fstat.o)
                                 0x24 (size before relaxing)
 .stab          0x0000003c       0x18 c:/sloeber/arduinoplugin/packages/arduino/tools/arm-none-eabi-gcc/7-2017q4/bin/../lib/gcc/arm-none-eabi/7.2.1/../../../../arm-none-eabi/lib/thumb/v7e-m/fpv4-sp/hard\libnosys.a(getpid.o)
                                 0x24 (size before relaxing)
 .stab          0x00000054       0x18 c:/sloeber/arduinoplugin/packages/arduino/tools/arm-none-eabi-gcc/7-2017q4/bin/../lib/gcc/arm-none-eabi/7.2.1/../../../../arm-none-eabi/lib/thumb/v7e-m/fpv4-sp/hard\libnosys.a(isatty.o)
                                 0x24 (size before relaxing)
 .stab          0x0000006c       0x18 c:/sloeber/arduinoplugin/packages/arduino/tools/arm-none-eabi-gcc/7-2017q4/bin/../lib/gcc/arm-none-eabi/7.2.1/../../../../arm-none-eabi/lib/thumb/v7e-m/fpv4-sp/hard\libnosys.a(kill.o)
                                 0x24 (size before relaxing)
 .stab          0x00000084       0x18 c:/sloeber/arduinoplugin/packages/arduino/tools/arm-none-eabi-gcc/7-2017q4/bin/../lib/gcc/arm-none-eabi/7.2.1/../../../../arm-none-eabi/lib/thumb/v7e-m/fpv4-sp/hard\libnosys.a(lseek.o)
                                 0x24 (size before relaxing)
 .stab          0x0000009c       0x18 c:/sloeber/arduinoplugin/packages/arduino/tools/arm-none-eabi-gcc/7-2017q4/bin/../lib/gcc/arm-none-eabi/7.2.1/../../../../arm-none-eabi/lib/thumb/v7e-m/fpv4-sp/hard\libnosys.a(read.o)
                                 0x24 (size before relaxing)
 .stab          0x000000b4       0x18 c:/sloeber/arduinoplugin/packages/arduino/tools/arm-none-eabi-gcc/7-2017q4/bin/../lib/gcc/arm-none-eabi/7.2.1/../../../../arm-none-eabi/lib/thumb/v7e-m/fpv4-sp/hard\libnosys.a(write.o)
                                 0x24 (size before relaxing)

.stabstr        0x00000000      0x1b9
 .stabstr       0x00000000      0x1b9 c:/sloeber/arduinoplugin/packages/arduino/tools/arm-none-eabi-gcc/7-2017q4/bin/../lib/gcc/arm-none-eabi/7.2.1/../../../../arm-none-eabi/lib/thumb/v7e-m/fpv4-sp/hard\libnosys.a(close.o)

Cross Reference Table

Symbol                                            File
AC_Handler                                        C:/sloeber-workspace/Samd51_DmaTest/Release/arduino.ar(cortex_handlers.c.o)
ADC0_0_Handler                                    C:/sloeber-workspace/Samd51_DmaTest/Release/arduino.ar(cortex_handlers.c.o)
ADC0_1_Handler                                    C:/sloeber-workspace/Samd51_DmaTest/Release/arduino.ar(cortex_handlers.c.o)
ADC1_0_Handler                                    C:/sloeber-workspace/Samd51_DmaTest/Release/arduino.ar(cortex_handlers.c.o)
ADC1_1_Handler                                    C:/sloeber-workspace/Samd51_DmaTest/Release/arduino.ar(cortex_handlers.c.o)
AES_Handler                                       C:/sloeber-workspace/Samd51_DmaTest/Release/arduino.ar(cortex_handlers.c.o)
Adafruit_ZeroDMA::Adafruit_ZeroDMA()              .\libraries\Adafruit_ZeroDMA\Adafruit_ZeroDMA.cpp.o
Adafruit_ZeroDMA::Adafruit_ZeroDMA()              .\libraries\Adafruit_ZeroDMA\Adafruit_ZeroDMA.cpp.o
                                                  .\libraries\SPI\SPI.cpp.o
Adafruit_ZeroDMA::_IRQhandler(unsigned char)      .\libraries\Adafruit_ZeroDMA\Adafruit_ZeroDMA.cpp.o
Adafruit_ZeroDMA::abort()                         .\libraries\Adafruit_ZeroDMA\Adafruit_ZeroDMA.cpp.o
Adafruit_ZeroDMA::addDescriptor(void*, void*, unsigned short, dma_beat_size, bool, bool, unsigned long, bool) .\libraries\Adafruit_ZeroDMA\Adafruit_ZeroDMA.cpp.o
                                                  .\libraries\SPI\SPI.cpp.o
Adafruit_ZeroDMA::allocate()                      .\libraries\Adafruit_ZeroDMA\Adafruit_ZeroDMA.cpp.o
                                                  .\libraries\SPI\SPI.cpp.o
Adafruit_ZeroDMA::changeDescriptor(DmacDescriptor*, void*, void*, unsigned short) .\libraries\Adafruit_ZeroDMA\Adafruit_ZeroDMA.cpp.o
                                                  .\libraries\SPI\SPI.cpp.o
Adafruit_ZeroDMA::free()                          .\libraries\Adafruit_ZeroDMA\Adafruit_ZeroDMA.cpp.o
Adafruit_ZeroDMA::isActive() const                .\libraries\Adafruit_ZeroDMA\Adafruit_ZeroDMA.cpp.o
Adafruit_ZeroDMA::loop(bool)                      .\libraries\Adafruit_ZeroDMA\Adafruit_ZeroDMA.cpp.o
Adafruit_ZeroDMA::printStatus(ZeroDMAstatus) const .\libraries\Adafruit_ZeroDMA\Adafruit_ZeroDMA.cpp.o
Adafruit_ZeroDMA::resume()                        .\libraries\Adafruit_ZeroDMA\Adafruit_ZeroDMA.cpp.o
Adafruit_ZeroDMA::setAction(dma_transfer_trigger_action) .\libraries\Adafruit_ZeroDMA\Adafruit_ZeroDMA.cpp.o
                                                  .\libraries\SPI\SPI.cpp.o
Adafruit_ZeroDMA::setCallback(void (*)(Adafruit_ZeroDMA*), dma_callback_type) .\libraries\Adafruit_ZeroDMA\Adafruit_ZeroDMA.cpp.o
                                                  .\libraries\SPI\SPI.cpp.o
Adafruit_ZeroDMA::setPriority(dma_priority) const .\libraries\Adafruit_ZeroDMA\Adafruit_ZeroDMA.cpp.o
Adafruit_ZeroDMA::setTrigger(unsigned char)       .\libraries\Adafruit_ZeroDMA\Adafruit_ZeroDMA.cpp.o
                                                  .\libraries\SPI\SPI.cpp.o
Adafruit_ZeroDMA::startJob()                      .\libraries\Adafruit_ZeroDMA\Adafruit_ZeroDMA.cpp.o
                                                  .\libraries\SPI\SPI.cpp.o
Adafruit_ZeroDMA::suspend() const                 .\libraries\Adafruit_ZeroDMA\Adafruit_ZeroDMA.cpp.o
Adafruit_ZeroDMA::trigger() const                 .\libraries\Adafruit_ZeroDMA\Adafruit_ZeroDMA.cpp.o
BusFault_Handler                                  C:/sloeber-workspace/Samd51_DmaTest/Release/arduino.ar(cortex_handlers.c.o)
CDC_GetInterface(unsigned char*)                  C:/sloeber-workspace/Samd51_DmaTest/Release/arduino.ar(CDC.cpp.o)
                                                  C:/sloeber-workspace/Samd51_DmaTest/Release/arduino.ar(USBCore.cpp.o)
CDC_Setup(USBSetup&)                              C:/sloeber-workspace/Samd51_DmaTest/Release/arduino.ar(CDC.cpp.o)
                                                  C:/sloeber-workspace/Samd51_DmaTest/Release/arduino.ar(USBCore.cpp.o)
DAC_0_Handler                                     C:/sloeber-workspace/Samd51_DmaTest/Release/arduino.ar(cortex_handlers.c.o)
DAC_1_Handler                                     C:/sloeber-workspace/Samd51_DmaTest/Release/arduino.ar(cortex_handlers.c.o)
DAC_2_Handler                                     C:/sloeber-workspace/Samd51_DmaTest/Release/arduino.ar(cortex_handlers.c.o)
DAC_3_Handler                                     C:/sloeber-workspace/Samd51_DmaTest/Release/arduino.ar(cortex_handlers.c.o)
DAC_4_Handler                                     C:/sloeber-workspace/Samd51_DmaTest/Release/arduino.ar(cortex_handlers.c.o)
DMAC_0_Handler                                    .\libraries\Adafruit_ZeroDMA\Adafruit_ZeroDMA.cpp.o
DMAC_1_Handler                                    .\libraries\Adafruit_ZeroDMA\Adafruit_ZeroDMA.cpp.o
DMAC_2_Handler                                    .\libraries\Adafruit_ZeroDMA\Adafruit_ZeroDMA.cpp.o
DMAC_3_Handler                                    .\libraries\Adafruit_ZeroDMA\Adafruit_ZeroDMA.cpp.o
DMAC_4_Handler                                    .\libraries\Adafruit_ZeroDMA\Adafruit_ZeroDMA.cpp.o
DebugMon_Handler                                  C:/sloeber-workspace/Samd51_DmaTest/Release/arduino.ar(cortex_handlers.c.o)
DoubleBufferedEPOutHandler::available() const     C:/sloeber-workspace/Samd51_DmaTest/Release/arduino.ar(USBCore.cpp.o)
DoubleBufferedEPOutHandler::handleEndpoint()      C:/sloeber-workspace/Samd51_DmaTest/Release/arduino.ar(USBCore.cpp.o)
DoubleBufferedEPOutHandler::init()                C:/sloeber-workspace/Samd51_DmaTest/Release/arduino.ar(USBCore.cpp.o)
DoubleBufferedEPOutHandler::recv(void*, unsigned long) C:/sloeber-workspace/Samd51_DmaTest/Release/arduino.ar(USBCore.cpp.o)
DoubleBufferedEPOutHandler::release()             C:/sloeber-workspace/Samd51_DmaTest/Release/arduino.ar(USBCore.cpp.o)
DoubleBufferedEPOutHandler::~DoubleBufferedEPOutHandler() C:/sloeber-workspace/Samd51_DmaTest/Release/arduino.ar(USBCore.cpp.o)
DoubleBufferedEPOutHandler::~DoubleBufferedEPOutHandler() C:/sloeber-workspace/Samd51_DmaTest/Release/arduino.ar(USBCore.cpp.o)
DoubleBufferedEPOutHandler::~DoubleBufferedEPOutHandler() C:/sloeber-workspace/Samd51_DmaTest/Release/arduino.ar(USBCore.cpp.o)
Dummy_Handler                                     C:/sloeber-workspace/Samd51_DmaTest/Release/arduino.ar(cortex_handlers.c.o)
EIC_0_Handler                                     C:/sloeber-workspace/Samd51_DmaTest/Release/arduino.ar(cortex_handlers.c.o)
EIC_10_Handler                                    C:/sloeber-workspace/Samd51_DmaTest/Release/arduino.ar(cortex_handlers.c.o)
EIC_11_Handler                                    C:/sloeber-workspace/Samd51_DmaTest/Release/arduino.ar(cortex_handlers.c.o)
EIC_12_Handler                                    C:/sloeber-workspace/Samd51_DmaTest/Release/arduino.ar(cortex_handlers.c.o)
EIC_13_Handler                                    C:/sloeber-workspace/Samd51_DmaTest/Release/arduino.ar(cortex_handlers.c.o)
EIC_14_Handler                                    C:/sloeber-workspace/Samd51_DmaTest/Release/arduino.ar(cortex_handlers.c.o)
EIC_15_Handler                                    C:/sloeber-workspace/Samd51_DmaTest/Release/arduino.ar(cortex_handlers.c.o)
EIC_1_Handler                                     C:/sloeber-workspace/Samd51_DmaTest/Release/arduino.ar(cortex_handlers.c.o)
EIC_2_Handler                                     C:/sloeber-workspace/Samd51_DmaTest/Release/arduino.ar(cortex_handlers.c.o)
EIC_3_Handler                                     C:/sloeber-workspace/Samd51_DmaTest/Release/arduino.ar(cortex_handlers.c.o)
EIC_4_Handler                                     C:/sloeber-workspace/Samd51_DmaTest/Release/arduino.ar(cortex_handlers.c.o)
EIC_5_Handler                                     C:/sloeber-workspace/Samd51_DmaTest/Release/arduino.ar(cortex_handlers.c.o)
EIC_6_Handler                                     C:/sloeber-workspace/Samd51_DmaTest/Release/arduino.ar(cortex_handlers.c.o)
EIC_7_Handler                                     C:/sloeber-workspace/Samd51_DmaTest/Release/arduino.ar(cortex_handlers.c.o)
EIC_8_Handler                                     C:/sloeber-workspace/Samd51_DmaTest/Release/arduino.ar(cortex_handlers.c.o)
EIC_9_Handler                                     C:/sloeber-workspace/Samd51_DmaTest/Release/arduino.ar(cortex_handlers.c.o)
EVSYS_0_Handler                                   C:/sloeber-workspace/Samd51_DmaTest/Release/arduino.ar(cortex_handlers.c.o)
EVSYS_1_Handler                                   C:/sloeber-workspace/Samd51_DmaTest/Release/arduino.ar(cortex_handlers.c.o)
EVSYS_2_Handler                                   C:/sloeber-workspace/Samd51_DmaTest/Release/arduino.ar(cortex_handlers.c.o)
EVSYS_3_Handler                                   C:/sloeber-workspace/Samd51_DmaTest/Release/arduino.ar(cortex_handlers.c.o)
EVSYS_4_Handler                                   C:/sloeber-workspace/Samd51_DmaTest/Release/arduino.ar(cortex_handlers.c.o)
EndPoints                                         C:/sloeber-workspace/Samd51_DmaTest/Release/arduino.ar(USBCore.cpp.o)
                                                  C:/sloeber-workspace/Samd51_DmaTest/Release/arduino.ar(PluggableUSB.cpp.o)
FREQM_Handler                                     C:/sloeber-workspace/Samd51_DmaTest/Release/arduino.ar(cortex_handlers.c.o)
GCLK_CLKCTRL_IDs                                  .\core\variant\variant.cpp.o
                                                  C:/sloeber-workspace/Samd51_DmaTest/Release/arduino.ar(wiring_analog.c.o)
HardFault_Handler                                 C:/sloeber-workspace/Samd51_DmaTest/Release/arduino.ar(cortex_handlers.c.o)
I2S_Handler                                       C:/sloeber-workspace/Samd51_DmaTest/Release/arduino.ar(cortex_handlers.c.o)
ICM_Handler                                       C:/sloeber-workspace/Samd51_DmaTest/Release/arduino.ar(cortex_handlers.c.o)
MCLK_Handler                                      C:/sloeber-workspace/Samd51_DmaTest/Release/arduino.ar(cortex_handlers.c.o)
MemManage_Handler                                 C:/sloeber-workspace/Samd51_DmaTest/Release/arduino.ar(cortex_handlers.c.o)
NMI_Handler                                       C:/sloeber-workspace/Samd51_DmaTest/Release/arduino.ar(cortex_handlers.c.o)
NVMCTRL_0_Handler                                 C:/sloeber-workspace/Samd51_DmaTest/Release/arduino.ar(cortex_handlers.c.o)
NVMCTRL_1_Handler                                 C:/sloeber-workspace/Samd51_DmaTest/Release/arduino.ar(cortex_handlers.c.o)
OSC32KCTRL_Handler                                C:/sloeber-workspace/Samd51_DmaTest/Release/arduino.ar(cortex_handlers.c.o)
OSCCTRL_0_Handler                                 C:/sloeber-workspace/Samd51_DmaTest/Release/arduino.ar(cortex_handlers.c.o)
OSCCTRL_1_Handler                                 C:/sloeber-workspace/Samd51_DmaTest/Release/arduino.ar(cortex_handlers.c.o)
OSCCTRL_2_Handler                                 C:/sloeber-workspace/Samd51_DmaTest/Release/arduino.ar(cortex_handlers.c.o)
OSCCTRL_3_Handler                                 C:/sloeber-workspace/Samd51_DmaTest/Release/arduino.ar(cortex_handlers.c.o)
OSCCTRL_4_Handler                                 C:/sloeber-workspace/Samd51_DmaTest/Release/arduino.ar(cortex_handlers.c.o)
PAC_Handler                                       C:/sloeber-workspace/Samd51_DmaTest/Release/arduino.ar(cortex_handlers.c.o)
PCC_Handler                                       C:/sloeber-workspace/Samd51_DmaTest/Release/arduino.ar(cortex_handlers.c.o)
PDEC_0_Handler                                    C:/sloeber-workspace/Samd51_DmaTest/Release/arduino.ar(cortex_handlers.c.o)
PDEC_1_Handler                                    C:/sloeber-workspace/Samd51_DmaTest/Release/arduino.ar(cortex_handlers.c.o)
PDEC_2_Handler                                    C:/sloeber-workspace/Samd51_DmaTest/Release/arduino.ar(cortex_handlers.c.o)
PM_Handler                                        C:/sloeber-workspace/Samd51_DmaTest/Release/arduino.ar(cortex_handlers.c.o)
PUKCC_Handler                                     C:/sloeber-workspace/Samd51_DmaTest/Release/arduino.ar(cortex_handlers.c.o)
PendSV_Handler                                    C:/sloeber-workspace/Samd51_DmaTest/Release/arduino.ar(cortex_handlers.c.o)
PluggableUSB()                                    C:/sloeber-workspace/Samd51_DmaTest/Release/arduino.ar(PluggableUSB.cpp.o)
                                                  C:/sloeber-workspace/Samd51_DmaTest/Release/arduino.ar(USBCore.cpp.o)
PluggableUSB_::PluggableUSB_()                    C:/sloeber-workspace/Samd51_DmaTest/Release/arduino.ar(PluggableUSB.cpp.o)
PluggableUSB_::PluggableUSB_()                    C:/sloeber-workspace/Samd51_DmaTest/Release/arduino.ar(PluggableUSB.cpp.o)
PluggableUSB_::getDescriptor(USBSetup&)           C:/sloeber-workspace/Samd51_DmaTest/Release/arduino.ar(PluggableUSB.cpp.o)
                                                  C:/sloeber-workspace/Samd51_DmaTest/Release/arduino.ar(USBCore.cpp.o)
PluggableUSB_::getInterface(unsigned char*)       C:/sloeber-workspace/Samd51_DmaTest/Release/arduino.ar(PluggableUSB.cpp.o)
                                                  C:/sloeber-workspace/Samd51_DmaTest/Release/arduino.ar(USBCore.cpp.o)
PluggableUSB_::getShortName(char*)                C:/sloeber-workspace/Samd51_DmaTest/Release/arduino.ar(PluggableUSB.cpp.o)
PluggableUSB_::plug(PluggableUSBModule*)          C:/sloeber-workspace/Samd51_DmaTest/Release/arduino.ar(PluggableUSB.cpp.o)
PluggableUSB_::setup(USBSetup&)                   C:/sloeber-workspace/Samd51_DmaTest/Release/arduino.ar(PluggableUSB.cpp.o)
                                                  C:/sloeber-workspace/Samd51_DmaTest/Release/arduino.ar(USBCore.cpp.o)
Print::availableForWrite()                        C:/sloeber-workspace/Samd51_DmaTest/Release/arduino.ar(Print.cpp.o)
Print::flush()                                    C:/sloeber-workspace/Samd51_DmaTest/Release/arduino.ar(Print.cpp.o)
Print::print(Printable const&)                    C:/sloeber-workspace/Samd51_DmaTest/Release/arduino.ar(Print.cpp.o)
Print::print(String const&)                       C:/sloeber-workspace/Samd51_DmaTest/Release/arduino.ar(Print.cpp.o)
Print::print(__FlashStringHelper const*)          C:/sloeber-workspace/Samd51_DmaTest/Release/arduino.ar(Print.cpp.o)
Print::print(char const*)                         C:/sloeber-workspace/Samd51_DmaTest/Release/arduino.ar(Print.cpp.o)
                                                  .\libraries\Adafruit_ZeroDMA\Adafruit_ZeroDMA.cpp.o
                                                  .\sloeber.ino.cpp.o
Print::print(char)                                C:/sloeber-workspace/Samd51_DmaTest/Release/arduino.ar(Print.cpp.o)
Print::print(double, int)                         C:/sloeber-workspace/Samd51_DmaTest/Release/arduino.ar(Print.cpp.o)
Print::print(int, int)                            C:/sloeber-workspace/Samd51_DmaTest/Release/arduino.ar(Print.cpp.o)
Print::print(long, int)                           C:/sloeber-workspace/Samd51_DmaTest/Release/arduino.ar(Print.cpp.o)
Print::print(unsigned char, int)                  C:/sloeber-workspace/Samd51_DmaTest/Release/arduino.ar(Print.cpp.o)
                                                  .\sloeber.ino.cpp.o
Print::print(unsigned int, int)                   C:/sloeber-workspace/Samd51_DmaTest/Release/arduino.ar(Print.cpp.o)
Print::print(unsigned long, int)                  C:/sloeber-workspace/Samd51_DmaTest/Release/arduino.ar(Print.cpp.o)
Print::printFloat(double, unsigned char)          C:/sloeber-workspace/Samd51_DmaTest/Release/arduino.ar(Print.cpp.o)
Print::printNumber(unsigned long, unsigned char)  C:/sloeber-workspace/Samd51_DmaTest/Release/arduino.ar(Print.cpp.o)
Print::printf(char const*, ...)                   C:/sloeber-workspace/Samd51_DmaTest/Release/arduino.ar(Print.cpp.o)
Print::println()                                  C:/sloeber-workspace/Samd51_DmaTest/Release/arduino.ar(Print.cpp.o)
                                                  .\sloeber.ino.cpp.o
Print::println(Printable const&)                  C:/sloeber-workspace/Samd51_DmaTest/Release/arduino.ar(Print.cpp.o)
Print::println(String const&)                     C:/sloeber-workspace/Samd51_DmaTest/Release/arduino.ar(Print.cpp.o)
Print::println(__FlashStringHelper const*)        C:/sloeber-workspace/Samd51_DmaTest/Release/arduino.ar(Print.cpp.o)
Print::println(char const*)                       C:/sloeber-workspace/Samd51_DmaTest/Release/arduino.ar(Print.cpp.o)
                                                  .\libraries\Adafruit_ZeroDMA\Adafruit_ZeroDMA.cpp.o
                                                  .\sloeber.ino.cpp.o
Print::println(char)                              C:/sloeber-workspace/Samd51_DmaTest/Release/arduino.ar(Print.cpp.o)
Print::println(double, int)                       C:/sloeber-workspace/Samd51_DmaTest/Release/arduino.ar(Print.cpp.o)
Print::println(int, int)                          C:/sloeber-workspace/Samd51_DmaTest/Release/arduino.ar(Print.cpp.o)
                                                  .\libraries\Adafruit_ZeroDMA\Adafruit_ZeroDMA.cpp.o
Print::println(long, int)                         C:/sloeber-workspace/Samd51_DmaTest/Release/arduino.ar(Print.cpp.o)
Print::println(unsigned char, int)                C:/sloeber-workspace/Samd51_DmaTest/Release/arduino.ar(Print.cpp.o)
Print::println(unsigned int, int)                 C:/sloeber-workspace/Samd51_DmaTest/Release/arduino.ar(Print.cpp.o)
Print::println(unsigned long, int)                C:/sloeber-workspace/Samd51_DmaTest/Release/arduino.ar(Print.cpp.o)
Print::write(char const*)                         C:/sloeber-workspace/Samd51_DmaTest/Release/arduino.ar(Print.cpp.o)
Print::write(unsigned char const*, unsigned int)  C:/sloeber-workspace/Samd51_DmaTest/Release/arduino.ar(Print.cpp.o)
                                                  C:/sloeber-workspace/Samd51_DmaTest/Release/arduino.ar(Uart.cpp.o)
QSPI_Handler                                      C:/sloeber-workspace/Samd51_DmaTest/Release/arduino.ar(cortex_handlers.c.o)
RAMECC_Handler                                    C:/sloeber-workspace/Samd51_DmaTest/Release/arduino.ar(cortex_handlers.c.o)
RTC_Handler                                       C:/sloeber-workspace/Samd51_DmaTest/Release/arduino.ar(cortex_handlers.c.o)
Reset_Handler                                     C:/sloeber-workspace/Samd51_DmaTest/Release/arduino.ar(cortex_handlers.c.o)
RingBufferN<256>::RingBufferN()                   C:/sloeber-workspace/Samd51_DmaTest/Release/arduino.ar(Uart.cpp.o)
RingBufferN<256>::RingBufferN()                   C:/sloeber-workspace/Samd51_DmaTest/Release/arduino.ar(Uart.cpp.o)
RingBufferN<256>::available()                     C:/sloeber-workspace/Samd51_DmaTest/Release/arduino.ar(Uart.cpp.o)
RingBufferN<256>::availableForStore()             C:/sloeber-workspace/Samd51_DmaTest/Release/arduino.ar(Uart.cpp.o)
SDHC0_Handler                                     C:/sloeber-workspace/Samd51_DmaTest/Release/arduino.ar(cortex_handlers.c.o)
SDHC1_Handler                                     C:/sloeber-workspace/Samd51_DmaTest/Release/arduino.ar(cortex_handlers.c.o)
SERCOM0_0_Handler                                 C:/sloeber-workspace/Samd51_DmaTest/Release/arduino.ar(cortex_handlers.c.o)
SERCOM0_1_Handler                                 C:/sloeber-workspace/Samd51_DmaTest/Release/arduino.ar(cortex_handlers.c.o)
SERCOM0_2_Handler                                 C:/sloeber-workspace/Samd51_DmaTest/Release/arduino.ar(cortex_handlers.c.o)
SERCOM0_3_Handler                                 C:/sloeber-workspace/Samd51_DmaTest/Release/arduino.ar(cortex_handlers.c.o)
SERCOM1_0_Handler                                 C:/sloeber-workspace/Samd51_DmaTest/Release/arduino.ar(cortex_handlers.c.o)
SERCOM1_1_Handler                                 C:/sloeber-workspace/Samd51_DmaTest/Release/arduino.ar(cortex_handlers.c.o)
SERCOM1_2_Handler                                 C:/sloeber-workspace/Samd51_DmaTest/Release/arduino.ar(cortex_handlers.c.o)
SERCOM1_3_Handler                                 C:/sloeber-workspace/Samd51_DmaTest/Release/arduino.ar(cortex_handlers.c.o)
SERCOM2_0_Handler                                 C:/sloeber-workspace/Samd51_DmaTest/Release/arduino.ar(cortex_handlers.c.o)
SERCOM2_1_Handler                                 C:/sloeber-workspace/Samd51_DmaTest/Release/arduino.ar(cortex_handlers.c.o)
SERCOM2_2_Handler                                 C:/sloeber-workspace/Samd51_DmaTest/Release/arduino.ar(cortex_handlers.c.o)
SERCOM2_3_Handler                                 C:/sloeber-workspace/Samd51_DmaTest/Release/arduino.ar(cortex_handlers.c.o)
SERCOM3_0_Handler                                 .\core\variant\variant.cpp.o
SERCOM3_1_Handler                                 .\core\variant\variant.cpp.o
SERCOM3_2_Handler                                 .\core\variant\variant.cpp.o
SERCOM3_3_Handler                                 .\core\variant\variant.cpp.o
SERCOM4_0_Handler                                 C:/sloeber-workspace/Samd51_DmaTest/Release/arduino.ar(cortex_handlers.c.o)
SERCOM4_1_Handler                                 C:/sloeber-workspace/Samd51_DmaTest/Release/arduino.ar(cortex_handlers.c.o)
SERCOM4_2_Handler                                 C:/sloeber-workspace/Samd51_DmaTest/Release/arduino.ar(cortex_handlers.c.o)
SERCOM4_3_Handler                                 C:/sloeber-workspace/Samd51_DmaTest/Release/arduino.ar(cortex_handlers.c.o)
SERCOM5_0_Handler                                 C:/sloeber-workspace/Samd51_DmaTest/Release/arduino.ar(cortex_handlers.c.o)
SERCOM5_1_Handler                                 C:/sloeber-workspace/Samd51_DmaTest/Release/arduino.ar(cortex_handlers.c.o)
SERCOM5_2_Handler                                 C:/sloeber-workspace/Samd51_DmaTest/Release/arduino.ar(cortex_handlers.c.o)
SERCOM5_3_Handler                                 C:/sloeber-workspace/Samd51_DmaTest/Release/arduino.ar(cortex_handlers.c.o)
SERCOM6_0_Handler                                 C:/sloeber-workspace/Samd51_DmaTest/Release/arduino.ar(cortex_handlers.c.o)
SERCOM6_1_Handler                                 C:/sloeber-workspace/Samd51_DmaTest/Release/arduino.ar(cortex_handlers.c.o)
SERCOM6_2_Handler                                 C:/sloeber-workspace/Samd51_DmaTest/Release/arduino.ar(cortex_handlers.c.o)
SERCOM6_3_Handler                                 C:/sloeber-workspace/Samd51_DmaTest/Release/arduino.ar(cortex_handlers.c.o)
SERCOM7_0_Handler                                 C:/sloeber-workspace/Samd51_DmaTest/Release/arduino.ar(cortex_handlers.c.o)
SERCOM7_1_Handler                                 C:/sloeber-workspace/Samd51_DmaTest/Release/arduino.ar(cortex_handlers.c.o)
SERCOM7_2_Handler                                 C:/sloeber-workspace/Samd51_DmaTest/Release/arduino.ar(cortex_handlers.c.o)
SERCOM7_3_Handler                                 C:/sloeber-workspace/Samd51_DmaTest/Release/arduino.ar(cortex_handlers.c.o)
SERCOM::SERCOM(Sercom*)                           C:/sloeber-workspace/Samd51_DmaTest/Release/arduino.ar(SERCOM.cpp.o)
SERCOM::SERCOM(Sercom*)                           C:/sloeber-workspace/Samd51_DmaTest/Release/arduino.ar(SERCOM.cpp.o)
                                                  .\core\variant\variant.cpp.o
SERCOM::acknowledgeUARTError()                    C:/sloeber-workspace/Samd51_DmaTest/Release/arduino.ar(SERCOM.cpp.o)
                                                  C:/sloeber-workspace/Samd51_DmaTest/Release/arduino.ar(Uart.cpp.o)
SERCOM::availableDataUART()                       C:/sloeber-workspace/Samd51_DmaTest/Release/arduino.ar(SERCOM.cpp.o)
                                                  C:/sloeber-workspace/Samd51_DmaTest/Release/arduino.ar(Uart.cpp.o)
SERCOM::availableWIRE()                           C:/sloeber-workspace/Samd51_DmaTest/Release/arduino.ar(SERCOM.cpp.o)
SERCOM::calculateBaudrateSynchronous(unsigned long) C:/sloeber-workspace/Samd51_DmaTest/Release/arduino.ar(SERCOM.cpp.o)
SERCOM::clearFrameErrorUART()                     C:/sloeber-workspace/Samd51_DmaTest/Release/arduino.ar(SERCOM.cpp.o)
                                                  C:/sloeber-workspace/Samd51_DmaTest/Release/arduino.ar(Uart.cpp.o)
SERCOM::clearStatusUART()                         C:/sloeber-workspace/Samd51_DmaTest/Release/arduino.ar(SERCOM.cpp.o)
                                                  C:/sloeber-workspace/Samd51_DmaTest/Release/arduino.ar(Uart.cpp.o)
SERCOM::disableDataRegisterEmptyInterruptUART()   C:/sloeber-workspace/Samd51_DmaTest/Release/arduino.ar(SERCOM.cpp.o)
                                                  C:/sloeber-workspace/Samd51_DmaTest/Release/arduino.ar(Uart.cpp.o)
SERCOM::disableSPI()                              C:/sloeber-workspace/Samd51_DmaTest/Release/arduino.ar(SERCOM.cpp.o)
                                                  .\libraries\SPI\SPI.cpp.o
SERCOM::disableWIRE()                             C:/sloeber-workspace/Samd51_DmaTest/Release/arduino.ar(SERCOM.cpp.o)
SERCOM::enableDataRegisterEmptyInterruptUART()    C:/sloeber-workspace/Samd51_DmaTest/Release/arduino.ar(SERCOM.cpp.o)
                                                  C:/sloeber-workspace/Samd51_DmaTest/Release/arduino.ar(Uart.cpp.o)
SERCOM::enableSPI()                               C:/sloeber-workspace/Samd51_DmaTest/Release/arduino.ar(SERCOM.cpp.o)
                                                  .\libraries\SPI\SPI.cpp.o
SERCOM::enableUART()                              C:/sloeber-workspace/Samd51_DmaTest/Release/arduino.ar(SERCOM.cpp.o)
                                                  C:/sloeber-workspace/Samd51_DmaTest/Release/arduino.ar(Uart.cpp.o)
SERCOM::enableWIRE()                              C:/sloeber-workspace/Samd51_DmaTest/Release/arduino.ar(SERCOM.cpp.o)
SERCOM::flushUART()                               C:/sloeber-workspace/Samd51_DmaTest/Release/arduino.ar(SERCOM.cpp.o)
                                                  C:/sloeber-workspace/Samd51_DmaTest/Release/arduino.ar(Uart.cpp.o)
SERCOM::getDataOrderSPI()                         C:/sloeber-workspace/Samd51_DmaTest/Release/arduino.ar(SERCOM.cpp.o)
                                                  .\libraries\SPI\SPI.cpp.o
SERCOM::getSercomIndex()                          C:/sloeber-workspace/Samd51_DmaTest/Release/arduino.ar(SERCOM.cpp.o)
                                                  .\libraries\SPI\SPI.cpp.o
SERCOM::initClockNVIC()                           C:/sloeber-workspace/Samd51_DmaTest/Release/arduino.ar(SERCOM.cpp.o)
SERCOM::initFrame(SercomUartCharSize, SercomDataOrder, SercomParityMode, SercomNumberStopBit) C:/sloeber-workspace/Samd51_DmaTest/Release/arduino.ar(SERCOM.cpp.o)
                                                  C:/sloeber-workspace/Samd51_DmaTest/Release/arduino.ar(Uart.cpp.o)
SERCOM::initMasterWIRE(unsigned long)             C:/sloeber-workspace/Samd51_DmaTest/Release/arduino.ar(SERCOM.cpp.o)
SERCOM::initPads(SercomUartTXPad, SercomRXPad)    C:/sloeber-workspace/Samd51_DmaTest/Release/arduino.ar(SERCOM.cpp.o)
                                                  C:/sloeber-workspace/Samd51_DmaTest/Release/arduino.ar(Uart.cpp.o)
SERCOM::initSPI(SercomSpiTXPad, SercomRXPad, SercomSpiCharSize, SercomDataOrder) C:/sloeber-workspace/Samd51_DmaTest/Release/arduino.ar(SERCOM.cpp.o)
                                                  .\libraries\SPI\SPI.cpp.o
SERCOM::initSPIClock(SercomSpiClockMode, unsigned long) C:/sloeber-workspace/Samd51_DmaTest/Release/arduino.ar(SERCOM.cpp.o)
                                                  .\libraries\SPI\SPI.cpp.o
SERCOM::initSlaveWIRE(unsigned char, bool)        C:/sloeber-workspace/Samd51_DmaTest/Release/arduino.ar(SERCOM.cpp.o)
SERCOM::initUART(SercomUartMode, SercomUartSampleRate, unsigned long) C:/sloeber-workspace/Samd51_DmaTest/Release/arduino.ar(SERCOM.cpp.o)
                                                  C:/sloeber-workspace/Samd51_DmaTest/Release/arduino.ar(Uart.cpp.o)
SERCOM::isAddressMatch()                          C:/sloeber-workspace/Samd51_DmaTest/Release/arduino.ar(SERCOM.cpp.o)
SERCOM::isBufferOverflowErrorSPI()                C:/sloeber-workspace/Samd51_DmaTest/Release/arduino.ar(SERCOM.cpp.o)
SERCOM::isBufferOverflowErrorUART()               C:/sloeber-workspace/Samd51_DmaTest/Release/arduino.ar(SERCOM.cpp.o)
SERCOM::isBusIdleWIRE()                           C:/sloeber-workspace/Samd51_DmaTest/Release/arduino.ar(SERCOM.cpp.o)
SERCOM::isBusOwnerWIRE()                          C:/sloeber-workspace/Samd51_DmaTest/Release/arduino.ar(SERCOM.cpp.o)
SERCOM::isDataReadyWIRE()                         C:/sloeber-workspace/Samd51_DmaTest/Release/arduino.ar(SERCOM.cpp.o)
SERCOM::isDataRegisterEmptySPI()                  C:/sloeber-workspace/Samd51_DmaTest/Release/arduino.ar(SERCOM.cpp.o)
SERCOM::isDataRegisterEmptyUART()                 C:/sloeber-workspace/Samd51_DmaTest/Release/arduino.ar(SERCOM.cpp.o)
                                                  C:/sloeber-workspace/Samd51_DmaTest/Release/arduino.ar(Uart.cpp.o)
SERCOM::isFrameErrorUART()                        C:/sloeber-workspace/Samd51_DmaTest/Release/arduino.ar(SERCOM.cpp.o)
                                                  C:/sloeber-workspace/Samd51_DmaTest/Release/arduino.ar(Uart.cpp.o)
SERCOM::isMasterReadOperationWIRE()               C:/sloeber-workspace/Samd51_DmaTest/Release/arduino.ar(SERCOM.cpp.o)
SERCOM::isMasterWIRE()                            C:/sloeber-workspace/Samd51_DmaTest/Release/arduino.ar(SERCOM.cpp.o)
SERCOM::isParityErrorUART()                       C:/sloeber-workspace/Samd51_DmaTest/Release/arduino.ar(SERCOM.cpp.o)
SERCOM::isRXNackReceivedWIRE()                    C:/sloeber-workspace/Samd51_DmaTest/Release/arduino.ar(SERCOM.cpp.o)
SERCOM::isRestartDetectedWIRE()                   C:/sloeber-workspace/Samd51_DmaTest/Release/arduino.ar(SERCOM.cpp.o)
SERCOM::isSlaveWIRE()                             C:/sloeber-workspace/Samd51_DmaTest/Release/arduino.ar(SERCOM.cpp.o)
SERCOM::isStopDetectedWIRE()                      C:/sloeber-workspace/Samd51_DmaTest/Release/arduino.ar(SERCOM.cpp.o)
SERCOM::isUARTError()                             C:/sloeber-workspace/Samd51_DmaTest/Release/arduino.ar(SERCOM.cpp.o)
                                                  C:/sloeber-workspace/Samd51_DmaTest/Release/arduino.ar(Uart.cpp.o)
SERCOM::prepareAckBitWIRE()                       C:/sloeber-workspace/Samd51_DmaTest/Release/arduino.ar(SERCOM.cpp.o)
SERCOM::prepareCommandBitsWire(unsigned char)     C:/sloeber-workspace/Samd51_DmaTest/Release/arduino.ar(SERCOM.cpp.o)
SERCOM::prepareNackBitWIRE()                      C:/sloeber-workspace/Samd51_DmaTest/Release/arduino.ar(SERCOM.cpp.o)
SERCOM::readDataUART()                            C:/sloeber-workspace/Samd51_DmaTest/Release/arduino.ar(SERCOM.cpp.o)
                                                  C:/sloeber-workspace/Samd51_DmaTest/Release/arduino.ar(Uart.cpp.o)
SERCOM::readDataWIRE()                            C:/sloeber-workspace/Samd51_DmaTest/Release/arduino.ar(SERCOM.cpp.o)
SERCOM::resetSPI()                                C:/sloeber-workspace/Samd51_DmaTest/Release/arduino.ar(SERCOM.cpp.o)
                                                  .\libraries\SPI\SPI.cpp.o
SERCOM::resetUART()                               C:/sloeber-workspace/Samd51_DmaTest/Release/arduino.ar(SERCOM.cpp.o)
                                                  C:/sloeber-workspace/Samd51_DmaTest/Release/arduino.ar(Uart.cpp.o)
SERCOM::resetWIRE()                               C:/sloeber-workspace/Samd51_DmaTest/Release/arduino.ar(SERCOM.cpp.o)
SERCOM::sendDataMasterWIRE(unsigned char)         C:/sloeber-workspace/Samd51_DmaTest/Release/arduino.ar(SERCOM.cpp.o)
SERCOM::sendDataSlaveWIRE(unsigned char)          C:/sloeber-workspace/Samd51_DmaTest/Release/arduino.ar(SERCOM.cpp.o)
SERCOM::setBaudrateSPI(unsigned char)             C:/sloeber-workspace/Samd51_DmaTest/Release/arduino.ar(SERCOM.cpp.o)
                                                  .\libraries\SPI\SPI.cpp.o
SERCOM::setClockModeSPI(SercomSpiClockMode)       C:/sloeber-workspace/Samd51_DmaTest/Release/arduino.ar(SERCOM.cpp.o)
                                                  .\libraries\SPI\SPI.cpp.o
SERCOM::setClockSource(signed char, SercomClockSource, bool) C:/sloeber-workspace/Samd51_DmaTest/Release/arduino.ar(SERCOM.cpp.o)
                                                  .\libraries\SPI\SPI.cpp.o
SERCOM::setDataOrderSPI(SercomDataOrder)          C:/sloeber-workspace/Samd51_DmaTest/Release/arduino.ar(SERCOM.cpp.o)
                                                  .\libraries\SPI\SPI.cpp.o
SERCOM::startTransmissionWIRE(unsigned char, SercomWireReadWriteFlag) C:/sloeber-workspace/Samd51_DmaTest/Release/arduino.ar(SERCOM.cpp.o)
SERCOM::transferDataSPI(unsigned char)            C:/sloeber-workspace/Samd51_DmaTest/Release/arduino.ar(SERCOM.cpp.o)
                                                  .\libraries\SPI\SPI.cpp.o
SERCOM::writeDataUART(unsigned char)              C:/sloeber-workspace/Samd51_DmaTest/Release/arduino.ar(SERCOM.cpp.o)
                                                  C:/sloeber-workspace/Samd51_DmaTest/Release/arduino.ar(Uart.cpp.o)
SPI                                               .\libraries\SPI\SPI.cpp.o
                                                  .\sloeber.ino.cpp.o
SPIClass::SPIClass(SERCOM*, unsigned char, unsigned char, unsigned char, SercomSpiTXPad, SercomRXPad) .\libraries\SPI\SPI.cpp.o
SPIClass::SPIClass(SERCOM*, unsigned char, unsigned char, unsigned char, SercomSpiTXPad, SercomRXPad) .\libraries\SPI\SPI.cpp.o
SPIClass::attachInterrupt()                       .\libraries\SPI\SPI.cpp.o
SPIClass::begin()                                 .\libraries\SPI\SPI.cpp.o
                                                  .\sloeber.ino.cpp.o
SPIClass::beginTransaction(SPISettings)           .\libraries\SPI\SPI.cpp.o
                                                  .\sloeber.ino.cpp.o
SPIClass::checkDmaComplete(unsigned char)         .\libraries\SPI\SPI.cpp.o
SPIClass::config(SPISettings)                     .\libraries\SPI\SPI.cpp.o
SPIClass::detachInterrupt()                       .\libraries\SPI\SPI.cpp.o
SPIClass::dmaCallback_read(Adafruit_ZeroDMA*)     .\libraries\SPI\SPI.cpp.o
SPIClass::dmaCallback_write(Adafruit_ZeroDMA*)    .\libraries\SPI\SPI.cpp.o
SPIClass::end()                                   .\libraries\SPI\SPI.cpp.o
SPIClass::endTransaction()                        .\libraries\SPI\SPI.cpp.o
                                                  .\sloeber.ino.cpp.o
SPIClass::getDMAC_ID_RX()                         .\libraries\SPI\SPI.cpp.o
SPIClass::getDMAC_ID_TX()                         .\libraries\SPI\SPI.cpp.o
SPIClass::getDataRegister()                       .\libraries\SPI\SPI.cpp.o
SPIClass::init()                                  .\libraries\SPI\SPI.cpp.o
SPIClass::notUsingInterrupt(int)                  .\libraries\SPI\SPI.cpp.o
SPIClass::setBitOrder(BitOrder)                   .\libraries\SPI\SPI.cpp.o
SPIClass::setClockDivider(unsigned char)          .\libraries\SPI\SPI.cpp.o
SPIClass::setClockSource(SercomClockSource)       .\libraries\SPI\SPI.cpp.o
SPIClass::setDataMode(unsigned char)              .\libraries\SPI\SPI.cpp.o
SPIClass::transfer(unsigned char)                 .\libraries\SPI\SPI.cpp.o
SPIClass::transfer(void const*, void*, unsigned long, bool) .\libraries\SPI\SPI.cpp.o
                                                  .\sloeber.ino.cpp.o
SPIClass::transfer(void*, unsigned int)           .\libraries\SPI\SPI.cpp.o
SPIClass::transfer(void*, void*, unsigned int)    .\libraries\SPI\SPI.cpp.o
SPIClass::transfer(void*, void*, unsigned long, void (*)()) .\libraries\SPI\SPI.cpp.o
SPIClass::transfer16(unsigned short)              .\libraries\SPI\SPI.cpp.o
SPIClass::usingInterrupt(int)                     .\libraries\SPI\SPI.cpp.o
SPIClass::waitForTransfer()                       .\libraries\SPI\SPI.cpp.o
                                                  .\sloeber.ino.cpp.o
SUPC_0_Handler                                    C:/sloeber-workspace/Samd51_DmaTest/Release/arduino.ar(cortex_handlers.c.o)
SUPC_1_Handler                                    C:/sloeber-workspace/Samd51_DmaTest/Release/arduino.ar(cortex_handlers.c.o)
SVC_Handler                                       C:/sloeber-workspace/Samd51_DmaTest/Release/arduino.ar(cortex_handlers.c.o)
Serial                                            C:/sloeber-workspace/Samd51_DmaTest/Release/arduino.ar(CDC.cpp.o)
                                                  .\libraries\Adafruit_ZeroDMA\Adafruit_ZeroDMA.cpp.o
                                                  .\sloeber.ino.cpp.o
Serial1                                           .\core\variant\variant.cpp.o
Serial_::available()                              C:/sloeber-workspace/Samd51_DmaTest/Release/arduino.ar(CDC.cpp.o)
Serial_::availableForWrite()                      C:/sloeber-workspace/Samd51_DmaTest/Release/arduino.ar(CDC.cpp.o)
Serial_::begin(unsigned long)                     C:/sloeber-workspace/Samd51_DmaTest/Release/arduino.ar(CDC.cpp.o)
                                                  .\sloeber.ino.cpp.o
Serial_::begin(unsigned long, unsigned char)      C:/sloeber-workspace/Samd51_DmaTest/Release/arduino.ar(CDC.cpp.o)
Serial_::end()                                    C:/sloeber-workspace/Samd51_DmaTest/Release/arduino.ar(CDC.cpp.o)
Serial_::flush()                                  C:/sloeber-workspace/Samd51_DmaTest/Release/arduino.ar(CDC.cpp.o)
Serial_::operator bool()                          C:/sloeber-workspace/Samd51_DmaTest/Release/arduino.ar(CDC.cpp.o)
Serial_::peek()                                   C:/sloeber-workspace/Samd51_DmaTest/Release/arduino.ar(CDC.cpp.o)
Serial_::read()                                   C:/sloeber-workspace/Samd51_DmaTest/Release/arduino.ar(CDC.cpp.o)
Serial_::readBytes(char*, unsigned int)           C:/sloeber-workspace/Samd51_DmaTest/Release/arduino.ar(CDC.cpp.o)
Serial_::write(unsigned char const*, unsigned int) C:/sloeber-workspace/Samd51_DmaTest/Release/arduino.ar(CDC.cpp.o)
Serial_::write(unsigned char)                     C:/sloeber-workspace/Samd51_DmaTest/Release/arduino.ar(CDC.cpp.o)
SysTick_DefaultHandler                            C:/sloeber-workspace/Samd51_DmaTest/Release/arduino.ar(delay.c.o)
                                                  C:/sloeber-workspace/Samd51_DmaTest/Release/arduino.ar(cortex_handlers.c.o)
SysTick_Handler                                   C:/sloeber-workspace/Samd51_DmaTest/Release/arduino.ar(cortex_handlers.c.o)
SystemCoreClock                                   C:/sloeber-workspace/Samd51_DmaTest/Release/arduino.ar(wiring.c.o)
                                                  C:/sloeber-workspace/Samd51_DmaTest/Release/arduino.ar(USBCore.cpp.o)
SystemInit                                        C:/sloeber-workspace/Samd51_DmaTest/Release/arduino.ar(startup.c.o)
                                                  C:/sloeber-workspace/Samd51_DmaTest/Release/arduino.ar(cortex_handlers.c.o)
TAL_0_Handler                                     C:/sloeber-workspace/Samd51_DmaTest/Release/arduino.ar(cortex_handlers.c.o)
TAL_1_Handler                                     C:/sloeber-workspace/Samd51_DmaTest/Release/arduino.ar(cortex_handlers.c.o)
TC0_Handler                                       C:/sloeber-workspace/Samd51_DmaTest/Release/arduino.ar(cortex_handlers.c.o)
TC1_Handler                                       C:/sloeber-workspace/Samd51_DmaTest/Release/arduino.ar(cortex_handlers.c.o)
TC2_Handler                                       C:/sloeber-workspace/Samd51_DmaTest/Release/arduino.ar(cortex_handlers.c.o)
TC3_Handler                                       C:/sloeber-workspace/Samd51_DmaTest/Release/arduino.ar(cortex_handlers.c.o)
TC4_Handler                                       C:/sloeber-workspace/Samd51_DmaTest/Release/arduino.ar(cortex_handlers.c.o)
TC5_Handler                                       C:/sloeber-workspace/Samd51_DmaTest/Release/arduino.ar(cortex_handlers.c.o)
TC6_Handler                                       C:/sloeber-workspace/Samd51_DmaTest/Release/arduino.ar(cortex_handlers.c.o)
TC7_Handler                                       C:/sloeber-workspace/Samd51_DmaTest/Release/arduino.ar(cortex_handlers.c.o)
TCC0_0_Handler                                    C:/sloeber-workspace/Samd51_DmaTest/Release/arduino.ar(cortex_handlers.c.o)
TCC0_1_Handler                                    C:/sloeber-workspace/Samd51_DmaTest/Release/arduino.ar(cortex_handlers.c.o)
TCC0_2_Handler                                    C:/sloeber-workspace/Samd51_DmaTest/Release/arduino.ar(cortex_handlers.c.o)
TCC0_3_Handler                                    C:/sloeber-workspace/Samd51_DmaTest/Release/arduino.ar(cortex_handlers.c.o)
TCC0_4_Handler                                    C:/sloeber-workspace/Samd51_DmaTest/Release/arduino.ar(cortex_handlers.c.o)
TCC0_5_Handler                                    C:/sloeber-workspace/Samd51_DmaTest/Release/arduino.ar(cortex_handlers.c.o)
TCC0_6_Handler                                    C:/sloeber-workspace/Samd51_DmaTest/Release/arduino.ar(cortex_handlers.c.o)
TCC1_0_Handler                                    C:/sloeber-workspace/Samd51_DmaTest/Release/arduino.ar(cortex_handlers.c.o)
TCC1_1_Handler                                    C:/sloeber-workspace/Samd51_DmaTest/Release/arduino.ar(cortex_handlers.c.o)
TCC1_2_Handler                                    C:/sloeber-workspace/Samd51_DmaTest/Release/arduino.ar(cortex_handlers.c.o)
TCC1_3_Handler                                    C:/sloeber-workspace/Samd51_DmaTest/Release/arduino.ar(cortex_handlers.c.o)
TCC1_4_Handler                                    C:/sloeber-workspace/Samd51_DmaTest/Release/arduino.ar(cortex_handlers.c.o)
TCC2_0_Handler                                    C:/sloeber-workspace/Samd51_DmaTest/Release/arduino.ar(cortex_handlers.c.o)
TCC2_1_Handler                                    C:/sloeber-workspace/Samd51_DmaTest/Release/arduino.ar(cortex_handlers.c.o)
TCC2_2_Handler                                    C:/sloeber-workspace/Samd51_DmaTest/Release/arduino.ar(cortex_handlers.c.o)
TCC2_3_Handler                                    C:/sloeber-workspace/Samd51_DmaTest/Release/arduino.ar(cortex_handlers.c.o)
TCC3_0_Handler                                    C:/sloeber-workspace/Samd51_DmaTest/Release/arduino.ar(cortex_handlers.c.o)
TCC3_1_Handler                                    C:/sloeber-workspace/Samd51_DmaTest/Release/arduino.ar(cortex_handlers.c.o)
TCC3_2_Handler                                    C:/sloeber-workspace/Samd51_DmaTest/Release/arduino.ar(cortex_handlers.c.o)
TCC4_0_Handler                                    C:/sloeber-workspace/Samd51_DmaTest/Release/arduino.ar(cortex_handlers.c.o)
TCC4_1_Handler                                    C:/sloeber-workspace/Samd51_DmaTest/Release/arduino.ar(cortex_handlers.c.o)
TCC4_2_Handler                                    C:/sloeber-workspace/Samd51_DmaTest/Release/arduino.ar(cortex_handlers.c.o)
TRNG_Handler                                      C:/sloeber-workspace/Samd51_DmaTest/Release/arduino.ar(cortex_handlers.c.o)
UDD_Handler                                       C:/sloeber-workspace/Samd51_DmaTest/Release/arduino.ar(USBCore.cpp.o)
USBDevice                                         C:/sloeber-workspace/Samd51_DmaTest/Release/arduino.ar(USBCore.cpp.o)
                                                  C:/sloeber-workspace/Samd51_DmaTest/Release/arduino.ar(main.cpp.o)
                                                  C:/sloeber-workspace/Samd51_DmaTest/Release/arduino.ar(CDC.cpp.o)
USBDeviceClass::ISRHandler()                      C:/sloeber-workspace/Samd51_DmaTest/Release/arduino.ar(USBCore.cpp.o)
USBDeviceClass::SendInterfaces(unsigned long*)    C:/sloeber-workspace/Samd51_DmaTest/Release/arduino.ar(USBCore.cpp.o)
USBDeviceClass::armRecv(unsigned long)            C:/sloeber-workspace/Samd51_DmaTest/Release/arduino.ar(USBCore.cpp.o)
USBDeviceClass::armRecvCtrlOUT(unsigned long)     C:/sloeber-workspace/Samd51_DmaTest/Release/arduino.ar(USBCore.cpp.o)
USBDeviceClass::armSend(unsigned long, void const*, unsigned long) C:/sloeber-workspace/Samd51_DmaTest/Release/arduino.ar(USBCore.cpp.o)
USBDeviceClass::attach()                          C:/sloeber-workspace/Samd51_DmaTest/Release/arduino.ar(USBCore.cpp.o)
                                                  C:/sloeber-workspace/Samd51_DmaTest/Release/arduino.ar(main.cpp.o)
USBDeviceClass::available(unsigned long)          C:/sloeber-workspace/Samd51_DmaTest/Release/arduino.ar(USBCore.cpp.o)
                                                  C:/sloeber-workspace/Samd51_DmaTest/Release/arduino.ar(CDC.cpp.o)
USBDeviceClass::configured()                      C:/sloeber-workspace/Samd51_DmaTest/Release/arduino.ar(USBCore.cpp.o)
USBDeviceClass::connected()                       C:/sloeber-workspace/Samd51_DmaTest/Release/arduino.ar(USBCore.cpp.o)
USBDeviceClass::detach()                          C:/sloeber-workspace/Samd51_DmaTest/Release/arduino.ar(USBCore.cpp.o)
USBDeviceClass::end()                             C:/sloeber-workspace/Samd51_DmaTest/Release/arduino.ar(USBCore.cpp.o)
USBDeviceClass::flush(unsigned long)              C:/sloeber-workspace/Samd51_DmaTest/Release/arduino.ar(USBCore.cpp.o)
                                                  C:/sloeber-workspace/Samd51_DmaTest/Release/arduino.ar(CDC.cpp.o)
USBDeviceClass::handleClassInterfaceSetup(USBSetup&) C:/sloeber-workspace/Samd51_DmaTest/Release/arduino.ar(USBCore.cpp.o)
USBDeviceClass::handleEndpoint(unsigned char)     C:/sloeber-workspace/Samd51_DmaTest/Release/arduino.ar(USBCore.cpp.o)
USBDeviceClass::handleStandardSetup(USBSetup&)    C:/sloeber-workspace/Samd51_DmaTest/Release/arduino.ar(USBCore.cpp.o)
USBDeviceClass::init()                            C:/sloeber-workspace/Samd51_DmaTest/Release/arduino.ar(USBCore.cpp.o)
                                                  C:/sloeber-workspace/Samd51_DmaTest/Release/arduino.ar(main.cpp.o)
USBDeviceClass::initEP(unsigned long, unsigned long) C:/sloeber-workspace/Samd51_DmaTest/Release/arduino.ar(USBCore.cpp.o)
USBDeviceClass::initEndpoints()                   C:/sloeber-workspace/Samd51_DmaTest/Release/arduino.ar(USBCore.cpp.o)
USBDeviceClass::packMessages(bool)                C:/sloeber-workspace/Samd51_DmaTest/Release/arduino.ar(USBCore.cpp.o)
USBDeviceClass::recv(unsigned long)               C:/sloeber-workspace/Samd51_DmaTest/Release/arduino.ar(USBCore.cpp.o)
                                                  C:/sloeber-workspace/Samd51_DmaTest/Release/arduino.ar(CDC.cpp.o)
USBDeviceClass::recv(unsigned long, void*, unsigned long) C:/sloeber-workspace/Samd51_DmaTest/Release/arduino.ar(USBCore.cpp.o)
                                                  C:/sloeber-workspace/Samd51_DmaTest/Release/arduino.ar(CDC.cpp.o)
USBDeviceClass::recvControl(void*, unsigned long) C:/sloeber-workspace/Samd51_DmaTest/Release/arduino.ar(USBCore.cpp.o)
                                                  C:/sloeber-workspace/Samd51_DmaTest/Release/arduino.ar(CDC.cpp.o)
USBDeviceClass::send(unsigned long, void const*, unsigned long) C:/sloeber-workspace/Samd51_DmaTest/Release/arduino.ar(USBCore.cpp.o)
                                                  C:/sloeber-workspace/Samd51_DmaTest/Release/arduino.ar(CDC.cpp.o)
USBDeviceClass::sendConfiguration(unsigned long)  C:/sloeber-workspace/Samd51_DmaTest/Release/arduino.ar(USBCore.cpp.o)
USBDeviceClass::sendControl(void const*, unsigned long) C:/sloeber-workspace/Samd51_DmaTest/Release/arduino.ar(USBCore.cpp.o)
                                                  C:/sloeber-workspace/Samd51_DmaTest/Release/arduino.ar(CDC.cpp.o)
USBDeviceClass::sendDescriptor(USBSetup&)         C:/sloeber-workspace/Samd51_DmaTest/Release/arduino.ar(USBCore.cpp.o)
USBDeviceClass::sendStringDescriptor(unsigned char const*, unsigned char) C:/sloeber-workspace/Samd51_DmaTest/Release/arduino.ar(USBCore.cpp.o)
USBDeviceClass::sendZlp(unsigned long)            C:/sloeber-workspace/Samd51_DmaTest/Release/arduino.ar(USBCore.cpp.o)
USBDeviceClass::setAddress(unsigned long)         C:/sloeber-workspace/Samd51_DmaTest/Release/arduino.ar(USBCore.cpp.o)
USBDeviceClass::setHandler(unsigned long, EPHandler*) C:/sloeber-workspace/Samd51_DmaTest/Release/arduino.ar(USBCore.cpp.o)
USBDeviceClass::stall(unsigned long)              C:/sloeber-workspace/Samd51_DmaTest/Release/arduino.ar(USBCore.cpp.o)
USBDeviceClass::standby()                         C:/sloeber-workspace/Samd51_DmaTest/Release/arduino.ar(USBCore.cpp.o)
USBDevice_SAMD21G18x::calibrate()                 C:/sloeber-workspace/Samd51_DmaTest/Release/arduino.ar(SAMD21_USBDevice.cpp.o)
                                                  C:/sloeber-workspace/Samd51_DmaTest/Release/arduino.ar(USBCore.cpp.o)
USBDevice_SAMD21G18x::reset()                     C:/sloeber-workspace/Samd51_DmaTest/Release/arduino.ar(SAMD21_USBDevice.cpp.o)
                                                  C:/sloeber-workspace/Samd51_DmaTest/Release/arduino.ar(USBCore.cpp.o)
USB_0_Handler                                     C:/sloeber-workspace/Samd51_DmaTest/Release/arduino.ar(cortex_handlers.c.o)
USB_1_Handler                                     C:/sloeber-workspace/Samd51_DmaTest/Release/arduino.ar(cortex_handlers.c.o)
USB_2_Handler                                     C:/sloeber-workspace/Samd51_DmaTest/Release/arduino.ar(cortex_handlers.c.o)
USB_3_Handler                                     C:/sloeber-workspace/Samd51_DmaTest/Release/arduino.ar(cortex_handlers.c.o)
USB_SetHandler                                    C:/sloeber-workspace/Samd51_DmaTest/Release/arduino.ar(cortex_handlers.c.o)
                                                  C:/sloeber-workspace/Samd51_DmaTest/Release/arduino.ar(USBCore.cpp.o)
Uart::IrqHandler()                                C:/sloeber-workspace/Samd51_DmaTest/Release/arduino.ar(Uart.cpp.o)
                                                  .\core\variant\variant.cpp.o
Uart::Uart(SERCOM*, unsigned char, unsigned char, SercomRXPad, SercomUartTXPad) C:/sloeber-workspace/Samd51_DmaTest/Release/arduino.ar(Uart.cpp.o)
                                                  .\core\variant\variant.cpp.o
Uart::Uart(SERCOM*, unsigned char, unsigned char, SercomRXPad, SercomUartTXPad) C:/sloeber-workspace/Samd51_DmaTest/Release/arduino.ar(Uart.cpp.o)
Uart::Uart(SERCOM*, unsigned char, unsigned char, SercomRXPad, SercomUartTXPad, unsigned char, unsigned char) C:/sloeber-workspace/Samd51_DmaTest/Release/arduino.ar(Uart.cpp.o)
Uart::Uart(SERCOM*, unsigned char, unsigned char, SercomRXPad, SercomUartTXPad, unsigned char, unsigned char) C:/sloeber-workspace/Samd51_DmaTest/Release/arduino.ar(Uart.cpp.o)
Uart::available()                                 C:/sloeber-workspace/Samd51_DmaTest/Release/arduino.ar(Uart.cpp.o)
Uart::availableForWrite()                         C:/sloeber-workspace/Samd51_DmaTest/Release/arduino.ar(Uart.cpp.o)
Uart::begin(unsigned long)                        C:/sloeber-workspace/Samd51_DmaTest/Release/arduino.ar(Uart.cpp.o)
Uart::begin(unsigned long, unsigned short)        C:/sloeber-workspace/Samd51_DmaTest/Release/arduino.ar(Uart.cpp.o)
Uart::end()                                       C:/sloeber-workspace/Samd51_DmaTest/Release/arduino.ar(Uart.cpp.o)
Uart::extractCharSize(unsigned short)             C:/sloeber-workspace/Samd51_DmaTest/Release/arduino.ar(Uart.cpp.o)
Uart::extractNbStopBit(unsigned short)            C:/sloeber-workspace/Samd51_DmaTest/Release/arduino.ar(Uart.cpp.o)
Uart::extractParity(unsigned short)               C:/sloeber-workspace/Samd51_DmaTest/Release/arduino.ar(Uart.cpp.o)
Uart::flush()                                     C:/sloeber-workspace/Samd51_DmaTest/Release/arduino.ar(Uart.cpp.o)
Uart::operator bool()                             C:/sloeber-workspace/Samd51_DmaTest/Release/arduino.ar(Uart.cpp.o)
Uart::peek()                                      C:/sloeber-workspace/Samd51_DmaTest/Release/arduino.ar(Uart.cpp.o)
Uart::read()                                      C:/sloeber-workspace/Samd51_DmaTest/Release/arduino.ar(Uart.cpp.o)
Uart::write(unsigned char)                        C:/sloeber-workspace/Samd51_DmaTest/Release/arduino.ar(Uart.cpp.o)
UsageFault_Handler                                C:/sloeber-workspace/Samd51_DmaTest/Release/arduino.ar(cortex_handlers.c.o)
WDT_Handler                                       C:/sloeber-workspace/Samd51_DmaTest/Release/arduino.ar(cortex_handlers.c.o)
_CDC_GetInterface()                               C:/sloeber-workspace/Samd51_DmaTest/Release/arduino.ar(CDC.cpp.o)
_CDC_GetInterfaceLength()                         C:/sloeber-workspace/Samd51_DmaTest/Release/arduino.ar(CDC.cpp.o)
__Guard::__Guard()                                C:/sloeber-workspace/Samd51_DmaTest/Release/arduino.ar(USBCore.cpp.o)
__Guard::__Guard()                                C:/sloeber-workspace/Samd51_DmaTest/Release/arduino.ar(USBCore.cpp.o)
__Guard::~__Guard()                               C:/sloeber-workspace/Samd51_DmaTest/Release/arduino.ar(USBCore.cpp.o)
__Guard::~__Guard()                               C:/sloeber-workspace/Samd51_DmaTest/Release/arduino.ar(USBCore.cpp.o)
__StackTop                                        C:/sloeber-workspace/Samd51_DmaTest/Release/arduino.ar(cortex_handlers.c.o)
__adddf3                                          c:/sloeber/arduinoplugin/packages/arduino/tools/arm-none-eabi-gcc/7-2017q4/bin/../lib/gcc/arm-none-eabi/7.2.1/thumb/v7e-m/fpv4-sp/hard\libgcc.a(_arm_addsubdf3.o)
__aeabi_cdcmpeq                                   c:/sloeber/arduinoplugin/packages/arduino/tools/arm-none-eabi-gcc/7-2017q4/bin/../lib/gcc/arm-none-eabi/7.2.1/thumb/v7e-m/fpv4-sp/hard\libgcc.a(_arm_cmpdf2.o)
__aeabi_cdcmple                                   c:/sloeber/arduinoplugin/packages/arduino/tools/arm-none-eabi-gcc/7-2017q4/bin/../lib/gcc/arm-none-eabi/7.2.1/thumb/v7e-m/fpv4-sp/hard\libgcc.a(_arm_cmpdf2.o)
__aeabi_cdrcmple                                  c:/sloeber/arduinoplugin/packages/arduino/tools/arm-none-eabi-gcc/7-2017q4/bin/../lib/gcc/arm-none-eabi/7.2.1/thumb/v7e-m/fpv4-sp/hard\libgcc.a(_arm_cmpdf2.o)
__aeabi_d2uiz                                     c:/sloeber/arduinoplugin/packages/arduino/tools/arm-none-eabi-gcc/7-2017q4/bin/../lib/gcc/arm-none-eabi/7.2.1/thumb/v7e-m/fpv4-sp/hard\libgcc.a(_arm_fixunsdfsi.o)
                                                  C:/sloeber-workspace/Samd51_DmaTest/Release/arduino.ar(Print.cpp.o)
__aeabi_dadd                                      c:/sloeber/arduinoplugin/packages/arduino/tools/arm-none-eabi-gcc/7-2017q4/bin/../lib/gcc/arm-none-eabi/7.2.1/thumb/v7e-m/fpv4-sp/hard\libgcc.a(_arm_addsubdf3.o)
                                                  c:/sloeber/arduinoplugin/packages/arduino/tools/arm-none-eabi-gcc/7-2017q4/bin/../lib/gcc/arm-none-eabi/7.2.1/../../../../arm-none-eabi/lib/thumb/v7e-m/fpv4-sp/hard\libm.a(lib_a-s_scalbn.o)
                                                  c:/sloeber/arduinoplugin/packages/arduino/tools/arm-none-eabi-gcc/7-2017q4/bin/../lib/gcc/arm-none-eabi/7.2.1/../../../../arm-none-eabi/lib/thumb/v7e-m/fpv4-sp/hard\libm.a(lib_a-s_rint.o)
                                                  c:/sloeber/arduinoplugin/packages/arduino/tools/arm-none-eabi-gcc/7-2017q4/bin/../lib/gcc/arm-none-eabi/7.2.1/../../../../arm-none-eabi/lib/thumb/v7e-m/fpv4-sp/hard\libm.a(lib_a-e_sqrt.o)
                                                  c:/sloeber/arduinoplugin/packages/arduino/tools/arm-none-eabi-gcc/7-2017q4/bin/../lib/gcc/arm-none-eabi/7.2.1/../../../../arm-none-eabi/lib/thumb/v7e-m/fpv4-sp/hard\libm.a(lib_a-e_pow.o)
                                                  C:/sloeber-workspace/Samd51_DmaTest/Release/arduino.ar(Print.cpp.o)
__aeabi_dcmpeq                                    c:/sloeber/arduinoplugin/packages/arduino/tools/arm-none-eabi-gcc/7-2017q4/bin/../lib/gcc/arm-none-eabi/7.2.1/thumb/v7e-m/fpv4-sp/hard\libgcc.a(_arm_cmpdf2.o)
                                                  c:/sloeber/arduinoplugin/packages/arduino/tools/arm-none-eabi-gcc/7-2017q4/bin/../lib/gcc/arm-none-eabi/7.2.1/../../../../arm-none-eabi/lib/thumb/v7e-m/fpv4-sp/hard\libm.a(lib_a-w_pow.o)
__aeabi_dcmpge                                    c:/sloeber/arduinoplugin/packages/arduino/tools/arm-none-eabi-gcc/7-2017q4/bin/../lib/gcc/arm-none-eabi/7.2.1/thumb/v7e-m/fpv4-sp/hard\libgcc.a(_arm_cmpdf2.o)
                                                  c:/sloeber/arduinoplugin/packages/arduino/tools/arm-none-eabi-gcc/7-2017q4/bin/../lib/gcc/arm-none-eabi/7.2.1/../../../../arm-none-eabi/lib/thumb/v7e-m/fpv4-sp/hard\libm.a(lib_a-e_pow.o)
__aeabi_dcmpgt                                    c:/sloeber/arduinoplugin/packages/arduino/tools/arm-none-eabi-gcc/7-2017q4/bin/../lib/gcc/arm-none-eabi/7.2.1/thumb/v7e-m/fpv4-sp/hard\libgcc.a(_arm_cmpdf2.o)
                                                  c:/sloeber/arduinoplugin/packages/arduino/tools/arm-none-eabi-gcc/7-2017q4/bin/../lib/gcc/arm-none-eabi/7.2.1/../../../../arm-none-eabi/lib/thumb/v7e-m/fpv4-sp/hard\libm.a(lib_a-e_pow.o)
                                                  C:/sloeber-workspace/Samd51_DmaTest/Release/arduino.ar(Print.cpp.o)
__aeabi_dcmple                                    c:/sloeber/arduinoplugin/packages/arduino/tools/arm-none-eabi-gcc/7-2017q4/bin/../lib/gcc/arm-none-eabi/7.2.1/thumb/v7e-m/fpv4-sp/hard\libgcc.a(_arm_cmpdf2.o)
                                                  C:/sloeber-workspace/Samd51_DmaTest/Release/arduino.ar(Print.cpp.o)
__aeabi_dcmplt                                    c:/sloeber/arduinoplugin/packages/arduino/tools/arm-none-eabi-gcc/7-2017q4/bin/../lib/gcc/arm-none-eabi/7.2.1/thumb/v7e-m/fpv4-sp/hard\libgcc.a(_arm_cmpdf2.o)
                                                  c:/sloeber/arduinoplugin/packages/arduino/tools/arm-none-eabi-gcc/7-2017q4/bin/../lib/gcc/arm-none-eabi/7.2.1/../../../../arm-none-eabi/lib/thumb/v7e-m/fpv4-sp/hard\libm.a(lib_a-w_pow.o)
                                                  C:/sloeber-workspace/Samd51_DmaTest/Release/arduino.ar(Print.cpp.o)
                                                  .\sloeber.ino.cpp.o
__aeabi_dcmpun                                    c:/sloeber/arduinoplugin/packages/arduino/tools/arm-none-eabi-gcc/7-2017q4/bin/../lib/gcc/arm-none-eabi/7.2.1/thumb/v7e-m/fpv4-sp/hard\libgcc.a(_arm_unorddf2.o)
                                                  c:/sloeber/arduinoplugin/packages/arduino/tools/arm-none-eabi-gcc/7-2017q4/bin/../lib/gcc/arm-none-eabi/7.2.1/../../../../arm-none-eabi/lib/thumb/v7e-m/fpv4-sp/hard\libm.a(lib_a-w_pow.o)
                                                  C:/sloeber-workspace/Samd51_DmaTest/Release/arduino.ar(Print.cpp.o)
__aeabi_ddiv                                      c:/sloeber/arduinoplugin/packages/arduino/tools/arm-none-eabi-gcc/7-2017q4/bin/../lib/gcc/arm-none-eabi/7.2.1/thumb/v7e-m/fpv4-sp/hard\libgcc.a(_arm_muldivdf3.o)
                                                  c:/sloeber/arduinoplugin/packages/arduino/tools/arm-none-eabi-gcc/7-2017q4/bin/../lib/gcc/arm-none-eabi/7.2.1/../../../../arm-none-eabi/lib/thumb/v7e-m/fpv4-sp/hard\libm.a(lib_a-e_sqrt.o)
                                                  c:/sloeber/arduinoplugin/packages/arduino/tools/arm-none-eabi-gcc/7-2017q4/bin/../lib/gcc/arm-none-eabi/7.2.1/../../../../arm-none-eabi/lib/thumb/v7e-m/fpv4-sp/hard\libm.a(lib_a-e_pow.o)
                                                  c:/sloeber/arduinoplugin/packages/arduino/tools/arm-none-eabi-gcc/7-2017q4/bin/../lib/gcc/arm-none-eabi/7.2.1/../../../../arm-none-eabi/lib/thumb/v7e-m/fpv4-sp/hard\libm.a(lib_a-w_pow.o)
                                                  C:/sloeber-workspace/Samd51_DmaTest/Release/arduino.ar(Print.cpp.o)
__aeabi_dmul                                      c:/sloeber/arduinoplugin/packages/arduino/tools/arm-none-eabi-gcc/7-2017q4/bin/../lib/gcc/arm-none-eabi/7.2.1/thumb/v7e-m/fpv4-sp/hard\libgcc.a(_arm_muldivdf3.o)
                                                  c:/sloeber/arduinoplugin/packages/arduino/tools/arm-none-eabi-gcc/7-2017q4/bin/../lib/gcc/arm-none-eabi/7.2.1/../../../../arm-none-eabi/lib/thumb/v7e-m/fpv4-sp/hard\libm.a(lib_a-s_scalbn.o)
                                                  c:/sloeber/arduinoplugin/packages/arduino/tools/arm-none-eabi-gcc/7-2017q4/bin/../lib/gcc/arm-none-eabi/7.2.1/../../../../arm-none-eabi/lib/thumb/v7e-m/fpv4-sp/hard\libm.a(lib_a-e_sqrt.o)
                                                  c:/sloeber/arduinoplugin/packages/arduino/tools/arm-none-eabi-gcc/7-2017q4/bin/../lib/gcc/arm-none-eabi/7.2.1/../../../../arm-none-eabi/lib/thumb/v7e-m/fpv4-sp/hard\libm.a(lib_a-e_pow.o)
                                                  c:/sloeber/arduinoplugin/packages/arduino/tools/arm-none-eabi-gcc/7-2017q4/bin/../lib/gcc/arm-none-eabi/7.2.1/../../../../arm-none-eabi/lib/thumb/v7e-m/fpv4-sp/hard\libm.a(lib_a-w_pow.o)
                                                  C:/sloeber-workspace/Samd51_DmaTest/Release/arduino.ar(Print.cpp.o)
__aeabi_drsub                                     c:/sloeber/arduinoplugin/packages/arduino/tools/arm-none-eabi-gcc/7-2017q4/bin/../lib/gcc/arm-none-eabi/7.2.1/thumb/v7e-m/fpv4-sp/hard\libgcc.a(_arm_addsubdf3.o)
__aeabi_dsub                                      c:/sloeber/arduinoplugin/packages/arduino/tools/arm-none-eabi-gcc/7-2017q4/bin/../lib/gcc/arm-none-eabi/7.2.1/thumb/v7e-m/fpv4-sp/hard\libgcc.a(_arm_addsubdf3.o)
                                                  c:/sloeber/arduinoplugin/packages/arduino/tools/arm-none-eabi-gcc/7-2017q4/bin/../lib/gcc/arm-none-eabi/7.2.1/../../../../arm-none-eabi/lib/thumb/v7e-m/fpv4-sp/hard\libm.a(lib_a-s_rint.o)
                                                  c:/sloeber/arduinoplugin/packages/arduino/tools/arm-none-eabi-gcc/7-2017q4/bin/../lib/gcc/arm-none-eabi/7.2.1/../../../../arm-none-eabi/lib/thumb/v7e-m/fpv4-sp/hard\libm.a(lib_a-e_sqrt.o)
                                                  c:/sloeber/arduinoplugin/packages/arduino/tools/arm-none-eabi-gcc/7-2017q4/bin/../lib/gcc/arm-none-eabi/7.2.1/../../../../arm-none-eabi/lib/thumb/v7e-m/fpv4-sp/hard\libm.a(lib_a-e_pow.o)
                                                  C:/sloeber-workspace/Samd51_DmaTest/Release/arduino.ar(Print.cpp.o)
__aeabi_f2d                                       c:/sloeber/arduinoplugin/packages/arduino/tools/arm-none-eabi-gcc/7-2017q4/bin/../lib/gcc/arm-none-eabi/7.2.1/thumb/v7e-m/fpv4-sp/hard\libgcc.a(_arm_addsubdf3.o)
__aeabi_i2d                                       c:/sloeber/arduinoplugin/packages/arduino/tools/arm-none-eabi-gcc/7-2017q4/bin/../lib/gcc/arm-none-eabi/7.2.1/thumb/v7e-m/fpv4-sp/hard\libgcc.a(_arm_addsubdf3.o)
                                                  c:/sloeber/arduinoplugin/packages/arduino/tools/arm-none-eabi-gcc/7-2017q4/bin/../lib/gcc/arm-none-eabi/7.2.1/../../../../arm-none-eabi/lib/thumb/v7e-m/fpv4-sp/hard\libm.a(lib_a-e_pow.o)
                                                  .\sloeber.ino.cpp.o
__aeabi_l2d                                       c:/sloeber/arduinoplugin/packages/arduino/tools/arm-none-eabi-gcc/7-2017q4/bin/../lib/gcc/arm-none-eabi/7.2.1/thumb/v7e-m/fpv4-sp/hard\libgcc.a(_arm_addsubdf3.o)
__aeabi_ui2d                                      c:/sloeber/arduinoplugin/packages/arduino/tools/arm-none-eabi-gcc/7-2017q4/bin/../lib/gcc/arm-none-eabi/7.2.1/thumb/v7e-m/fpv4-sp/hard\libgcc.a(_arm_addsubdf3.o)
                                                  C:/sloeber-workspace/Samd51_DmaTest/Release/arduino.ar(Print.cpp.o)
__aeabi_ul2d                                      c:/sloeber/arduinoplugin/packages/arduino/tools/arm-none-eabi-gcc/7-2017q4/bin/../lib/gcc/arm-none-eabi/7.2.1/thumb/v7e-m/fpv4-sp/hard\libgcc.a(_arm_addsubdf3.o)
__assert                                          c:/sloeber/arduinoplugin/packages/arduino/tools/arm-none-eabi-gcc/7-2017q4/bin/../lib/gcc/arm-none-eabi/7.2.1/../../../../arm-none-eabi/lib/thumb/v7e-m/fpv4-sp/hard\libc_nano.a(lib_a-assert.o)
__assert_func                                     c:/sloeber/arduinoplugin/packages/arduino/tools/arm-none-eabi-gcc/7-2017q4/bin/../lib/gcc/arm-none-eabi/7.2.1/../../../../arm-none-eabi/lib/thumb/v7e-m/fpv4-sp/hard\libc_nano.a(lib_a-assert.o)
                                                  .\libraries\SPI\SPI.cpp.o
__bss_end__                                       C:/sloeber-workspace/Samd51_DmaTest/Release/arduino.ar(cortex_handlers.c.o)
                                                  c:/sloeber/arduinoplugin/packages/arduino/tools/arm-none-eabi-gcc/7-2017q4/bin/../lib/gcc/arm-none-eabi/7.2.1/../../../../arm-none-eabi/lib/thumb/v7e-m/fpv4-sp/hard/crt0.o
__bss_start__                                     C:/sloeber-workspace/Samd51_DmaTest/Release/arduino.ar(cortex_handlers.c.o)
                                                  c:/sloeber/arduinoplugin/packages/arduino/tools/arm-none-eabi-gcc/7-2017q4/bin/../lib/gcc/arm-none-eabi/7.2.1/../../../../arm-none-eabi/lib/thumb/v7e-m/fpv4-sp/hard/crt0.o
__call_exitprocs                                  c:/sloeber/arduinoplugin/packages/arduino/tools/arm-none-eabi-gcc/7-2017q4/bin/../lib/gcc/arm-none-eabi/7.2.1/../../../../arm-none-eabi/lib/thumb/v7e-m/fpv4-sp/hard\libc_nano.a(lib_a-exit.o)
__cmpdf2                                          c:/sloeber/arduinoplugin/packages/arduino/tools/arm-none-eabi-gcc/7-2017q4/bin/../lib/gcc/arm-none-eabi/7.2.1/thumb/v7e-m/fpv4-sp/hard\libgcc.a(_arm_cmpdf2.o)
__cxa_deleted_virtual                             C:/sloeber-workspace/Samd51_DmaTest/Release/arduino.ar(abi.cpp.o)
__cxa_pure_virtual                                C:/sloeber-workspace/Samd51_DmaTest/Release/arduino.ar(abi.cpp.o)
                                                  C:/sloeber-workspace/Samd51_DmaTest/Release/arduino.ar(Print.cpp.o)
__data_end__                                      C:/sloeber-workspace/Samd51_DmaTest/Release/arduino.ar(cortex_handlers.c.o)
__data_start__                                    C:/sloeber-workspace/Samd51_DmaTest/Release/arduino.ar(cortex_handlers.c.o)
__deregister_frame_info                           c:/sloeber/arduinoplugin/packages/arduino/tools/arm-none-eabi-gcc/7-2017q4/bin/../lib/gcc/arm-none-eabi/7.2.1/thumb/v7e-m/fpv4-sp/hard/crtbegin.o
__divdf3                                          c:/sloeber/arduinoplugin/packages/arduino/tools/arm-none-eabi-gcc/7-2017q4/bin/../lib/gcc/arm-none-eabi/7.2.1/thumb/v7e-m/fpv4-sp/hard\libgcc.a(_arm_muldivdf3.o)
__dso_handle                                      c:/sloeber/arduinoplugin/packages/arduino/tools/arm-none-eabi-gcc/7-2017q4/bin/../lib/gcc/arm-none-eabi/7.2.1/thumb/v7e-m/fpv4-sp/hard/crtbegin.o
__eqdf2                                           c:/sloeber/arduinoplugin/packages/arduino/tools/arm-none-eabi-gcc/7-2017q4/bin/../lib/gcc/arm-none-eabi/7.2.1/thumb/v7e-m/fpv4-sp/hard\libgcc.a(_arm_cmpdf2.o)
__errno                                           c:/sloeber/arduinoplugin/packages/arduino/tools/arm-none-eabi-gcc/7-2017q4/bin/../lib/gcc/arm-none-eabi/7.2.1/../../../../arm-none-eabi/lib/thumb/v7e-m/fpv4-sp/hard\libc_nano.a(lib_a-errno.o)
                                                  c:/sloeber/arduinoplugin/packages/arduino/tools/arm-none-eabi-gcc/7-2017q4/bin/../lib/gcc/arm-none-eabi/7.2.1/../../../../arm-none-eabi/lib/thumb/v7e-m/fpv4-sp/hard\libm.a(lib_a-w_pow.o)
__etext                                           C:/sloeber-workspace/Samd51_DmaTest/Release/arduino.ar(cortex_handlers.c.o)
__extendsfdf2                                     c:/sloeber/arduinoplugin/packages/arduino/tools/arm-none-eabi-gcc/7-2017q4/bin/../lib/gcc/arm-none-eabi/7.2.1/thumb/v7e-m/fpv4-sp/hard\libgcc.a(_arm_addsubdf3.o)
__fdlib_version                                   c:/sloeber/arduinoplugin/packages/arduino/tools/arm-none-eabi-gcc/7-2017q4/bin/../lib/gcc/arm-none-eabi/7.2.1/../../../../arm-none-eabi/lib/thumb/v7e-m/fpv4-sp/hard\libm.a(lib_a-s_lib_ver.o)
                                                  c:/sloeber/arduinoplugin/packages/arduino/tools/arm-none-eabi-gcc/7-2017q4/bin/../lib/gcc/arm-none-eabi/7.2.1/../../../../arm-none-eabi/lib/thumb/v7e-m/fpv4-sp/hard\libm.a(lib_a-w_pow.o)
__fixunsdfsi                                      c:/sloeber/arduinoplugin/packages/arduino/tools/arm-none-eabi-gcc/7-2017q4/bin/../lib/gcc/arm-none-eabi/7.2.1/thumb/v7e-m/fpv4-sp/hard\libgcc.a(_arm_fixunsdfsi.o)
__floatdidf                                       c:/sloeber/arduinoplugin/packages/arduino/tools/arm-none-eabi-gcc/7-2017q4/bin/../lib/gcc/arm-none-eabi/7.2.1/thumb/v7e-m/fpv4-sp/hard\libgcc.a(_arm_addsubdf3.o)
__floatsidf                                       c:/sloeber/arduinoplugin/packages/arduino/tools/arm-none-eabi-gcc/7-2017q4/bin/../lib/gcc/arm-none-eabi/7.2.1/thumb/v7e-m/fpv4-sp/hard\libgcc.a(_arm_addsubdf3.o)
__floatundidf                                     c:/sloeber/arduinoplugin/packages/arduino/tools/arm-none-eabi-gcc/7-2017q4/bin/../lib/gcc/arm-none-eabi/7.2.1/thumb/v7e-m/fpv4-sp/hard\libgcc.a(_arm_addsubdf3.o)
__floatunsidf                                     c:/sloeber/arduinoplugin/packages/arduino/tools/arm-none-eabi-gcc/7-2017q4/bin/../lib/gcc/arm-none-eabi/7.2.1/thumb/v7e-m/fpv4-sp/hard\libgcc.a(_arm_addsubdf3.o)
__fp_lock_all                                     c:/sloeber/arduinoplugin/packages/arduino/tools/arm-none-eabi-gcc/7-2017q4/bin/../lib/gcc/arm-none-eabi/7.2.1/../../../../arm-none-eabi/lib/thumb/v7e-m/fpv4-sp/hard\libc_nano.a(lib_a-findfp.o)
__fp_unlock_all                                   c:/sloeber/arduinoplugin/packages/arduino/tools/arm-none-eabi-gcc/7-2017q4/bin/../lib/gcc/arm-none-eabi/7.2.1/../../../../arm-none-eabi/lib/thumb/v7e-m/fpv4-sp/hard\libc_nano.a(lib_a-findfp.o)
__gedf2                                           c:/sloeber/arduinoplugin/packages/arduino/tools/arm-none-eabi-gcc/7-2017q4/bin/../lib/gcc/arm-none-eabi/7.2.1/thumb/v7e-m/fpv4-sp/hard\libgcc.a(_arm_cmpdf2.o)
__gtdf2                                           c:/sloeber/arduinoplugin/packages/arduino/tools/arm-none-eabi-gcc/7-2017q4/bin/../lib/gcc/arm-none-eabi/7.2.1/thumb/v7e-m/fpv4-sp/hard\libgcc.a(_arm_cmpdf2.o)
__ieee754_pow                                     c:/sloeber/arduinoplugin/packages/arduino/tools/arm-none-eabi-gcc/7-2017q4/bin/../lib/gcc/arm-none-eabi/7.2.1/../../../../arm-none-eabi/lib/thumb/v7e-m/fpv4-sp/hard\libm.a(lib_a-e_pow.o)
                                                  c:/sloeber/arduinoplugin/packages/arduino/tools/arm-none-eabi-gcc/7-2017q4/bin/../lib/gcc/arm-none-eabi/7.2.1/../../../../arm-none-eabi/lib/thumb/v7e-m/fpv4-sp/hard\libm.a(lib_a-w_pow.o)
__ieee754_sqrt                                    c:/sloeber/arduinoplugin/packages/arduino/tools/arm-none-eabi-gcc/7-2017q4/bin/../lib/gcc/arm-none-eabi/7.2.1/../../../../arm-none-eabi/lib/thumb/v7e-m/fpv4-sp/hard\libm.a(lib_a-e_sqrt.o)
                                                  c:/sloeber/arduinoplugin/packages/arduino/tools/arm-none-eabi-gcc/7-2017q4/bin/../lib/gcc/arm-none-eabi/7.2.1/../../../../arm-none-eabi/lib/thumb/v7e-m/fpv4-sp/hard\libm.a(lib_a-e_pow.o)
__init_array_end                                  c:/sloeber/arduinoplugin/packages/arduino/tools/arm-none-eabi-gcc/7-2017q4/bin/../lib/gcc/arm-none-eabi/7.2.1/../../../../arm-none-eabi/lib/thumb/v7e-m/fpv4-sp/hard\libc_nano.a(lib_a-init.o)
__init_array_start                                c:/sloeber/arduinoplugin/packages/arduino/tools/arm-none-eabi-gcc/7-2017q4/bin/../lib/gcc/arm-none-eabi/7.2.1/../../../../arm-none-eabi/lib/thumb/v7e-m/fpv4-sp/hard\libc_nano.a(lib_a-init.o)
__ledf2                                           c:/sloeber/arduinoplugin/packages/arduino/tools/arm-none-eabi-gcc/7-2017q4/bin/../lib/gcc/arm-none-eabi/7.2.1/thumb/v7e-m/fpv4-sp/hard\libgcc.a(_arm_cmpdf2.o)
__libc_fini_array                                 c:/sloeber/arduinoplugin/packages/arduino/tools/arm-none-eabi-gcc/7-2017q4/bin/../lib/gcc/arm-none-eabi/7.2.1/../../../../arm-none-eabi/lib/thumb/v7e-m/fpv4-sp/hard/crt0.o
__libc_init_array                                 c:/sloeber/arduinoplugin/packages/arduino/tools/arm-none-eabi-gcc/7-2017q4/bin/../lib/gcc/arm-none-eabi/7.2.1/../../../../arm-none-eabi/lib/thumb/v7e-m/fpv4-sp/hard\libc_nano.a(lib_a-init.o)
                                                  C:/sloeber-workspace/Samd51_DmaTest/Release/arduino.ar(main.cpp.o)
                                                  c:/sloeber/arduinoplugin/packages/arduino/tools/arm-none-eabi-gcc/7-2017q4/bin/../lib/gcc/arm-none-eabi/7.2.1/../../../../arm-none-eabi/lib/thumb/v7e-m/fpv4-sp/hard/crt0.o
__ltdf2                                           c:/sloeber/arduinoplugin/packages/arduino/tools/arm-none-eabi-gcc/7-2017q4/bin/../lib/gcc/arm-none-eabi/7.2.1/thumb/v7e-m/fpv4-sp/hard\libgcc.a(_arm_cmpdf2.o)
__malloc_free_list                                c:/sloeber/arduinoplugin/packages/arduino/tools/arm-none-eabi-gcc/7-2017q4/bin/../lib/gcc/arm-none-eabi/7.2.1/../../../../arm-none-eabi/lib/thumb/v7e-m/fpv4-sp/hard\libc_nano.a(lib_a-nano-mallocr.o)
                                                  c:/sloeber/arduinoplugin/packages/arduino/tools/arm-none-eabi-gcc/7-2017q4/bin/../lib/gcc/arm-none-eabi/7.2.1/../../../../arm-none-eabi/lib/thumb/v7e-m/fpv4-sp/hard\libc_nano.a(lib_a-nano-freer.o)
__malloc_lock                                     c:/sloeber/arduinoplugin/packages/arduino/tools/arm-none-eabi-gcc/7-2017q4/bin/../lib/gcc/arm-none-eabi/7.2.1/../../../../arm-none-eabi/lib/thumb/v7e-m/fpv4-sp/hard\libc_nano.a(lib_a-mlock.o)
                                                  c:/sloeber/arduinoplugin/packages/arduino/tools/arm-none-eabi-gcc/7-2017q4/bin/../lib/gcc/arm-none-eabi/7.2.1/../../../../arm-none-eabi/lib/thumb/v7e-m/fpv4-sp/hard\libc_nano.a(lib_a-nano-mallocr.o)
                                                  c:/sloeber/arduinoplugin/packages/arduino/tools/arm-none-eabi-gcc/7-2017q4/bin/../lib/gcc/arm-none-eabi/7.2.1/../../../../arm-none-eabi/lib/thumb/v7e-m/fpv4-sp/hard\libc_nano.a(lib_a-nano-freer.o)
__malloc_sbrk_start                               c:/sloeber/arduinoplugin/packages/arduino/tools/arm-none-eabi-gcc/7-2017q4/bin/../lib/gcc/arm-none-eabi/7.2.1/../../../../arm-none-eabi/lib/thumb/v7e-m/fpv4-sp/hard\libc_nano.a(lib_a-nano-mallocr.o)
__malloc_unlock                                   c:/sloeber/arduinoplugin/packages/arduino/tools/arm-none-eabi-gcc/7-2017q4/bin/../lib/gcc/arm-none-eabi/7.2.1/../../../../arm-none-eabi/lib/thumb/v7e-m/fpv4-sp/hard\libc_nano.a(lib_a-mlock.o)
                                                  c:/sloeber/arduinoplugin/packages/arduino/tools/arm-none-eabi-gcc/7-2017q4/bin/../lib/gcc/arm-none-eabi/7.2.1/../../../../arm-none-eabi/lib/thumb/v7e-m/fpv4-sp/hard\libc_nano.a(lib_a-nano-mallocr.o)
                                                  c:/sloeber/arduinoplugin/packages/arduino/tools/arm-none-eabi-gcc/7-2017q4/bin/../lib/gcc/arm-none-eabi/7.2.1/../../../../arm-none-eabi/lib/thumb/v7e-m/fpv4-sp/hard\libc_nano.a(lib_a-nano-freer.o)
__muldf3                                          c:/sloeber/arduinoplugin/packages/arduino/tools/arm-none-eabi-gcc/7-2017q4/bin/../lib/gcc/arm-none-eabi/7.2.1/thumb/v7e-m/fpv4-sp/hard\libgcc.a(_arm_muldivdf3.o)
__nedf2                                           c:/sloeber/arduinoplugin/packages/arduino/tools/arm-none-eabi-gcc/7-2017q4/bin/../lib/gcc/arm-none-eabi/7.2.1/thumb/v7e-m/fpv4-sp/hard\libgcc.a(_arm_cmpdf2.o)
__preinit_array_end                               c:/sloeber/arduinoplugin/packages/arduino/tools/arm-none-eabi-gcc/7-2017q4/bin/../lib/gcc/arm-none-eabi/7.2.1/../../../../arm-none-eabi/lib/thumb/v7e-m/fpv4-sp/hard\libc_nano.a(lib_a-init.o)
__preinit_array_start                             c:/sloeber/arduinoplugin/packages/arduino/tools/arm-none-eabi-gcc/7-2017q4/bin/../lib/gcc/arm-none-eabi/7.2.1/../../../../arm-none-eabi/lib/thumb/v7e-m/fpv4-sp/hard\libc_nano.a(lib_a-init.o)
__register_frame_info                             c:/sloeber/arduinoplugin/packages/arduino/tools/arm-none-eabi-gcc/7-2017q4/bin/../lib/gcc/arm-none-eabi/7.2.1/thumb/v7e-m/fpv4-sp/hard/crtbegin.o
__sclose                                          c:/sloeber/arduinoplugin/packages/arduino/tools/arm-none-eabi-gcc/7-2017q4/bin/../lib/gcc/arm-none-eabi/7.2.1/../../../../arm-none-eabi/lib/thumb/v7e-m/fpv4-sp/hard\libc_nano.a(lib_a-stdio.o)
                                                  c:/sloeber/arduinoplugin/packages/arduino/tools/arm-none-eabi-gcc/7-2017q4/bin/../lib/gcc/arm-none-eabi/7.2.1/../../../../arm-none-eabi/lib/thumb/v7e-m/fpv4-sp/hard\libc_nano.a(lib_a-findfp.o)
__seofread                                        c:/sloeber/arduinoplugin/packages/arduino/tools/arm-none-eabi-gcc/7-2017q4/bin/../lib/gcc/arm-none-eabi/7.2.1/../../../../arm-none-eabi/lib/thumb/v7e-m/fpv4-sp/hard\libc_nano.a(lib_a-stdio.o)
__sf_fake_stderr                                  c:/sloeber/arduinoplugin/packages/arduino/tools/arm-none-eabi-gcc/7-2017q4/bin/../lib/gcc/arm-none-eabi/7.2.1/../../../../arm-none-eabi/lib/thumb/v7e-m/fpv4-sp/hard\libc_nano.a(lib_a-findfp.o)
                                                  c:/sloeber/arduinoplugin/packages/arduino/tools/arm-none-eabi-gcc/7-2017q4/bin/../lib/gcc/arm-none-eabi/7.2.1/../../../../arm-none-eabi/lib/thumb/v7e-m/fpv4-sp/hard\libc_nano.a(lib_a-fflush.o)
                                                  c:/sloeber/arduinoplugin/packages/arduino/tools/arm-none-eabi-gcc/7-2017q4/bin/../lib/gcc/arm-none-eabi/7.2.1/../../../../arm-none-eabi/lib/thumb/v7e-m/fpv4-sp/hard\libc_nano.a(lib_a-wsetup.o)
                                                  c:/sloeber/arduinoplugin/packages/arduino/tools/arm-none-eabi-gcc/7-2017q4/bin/../lib/gcc/arm-none-eabi/7.2.1/../../../../arm-none-eabi/lib/thumb/v7e-m/fpv4-sp/hard\libc_nano.a(lib_a-wbuf.o)
                                                  c:/sloeber/arduinoplugin/packages/arduino/tools/arm-none-eabi-gcc/7-2017q4/bin/../lib/gcc/arm-none-eabi/7.2.1/../../../../arm-none-eabi/lib/thumb/v7e-m/fpv4-sp/hard\libc_nano.a(lib_a-nano-vfprintf.o)
                                                  c:/sloeber/arduinoplugin/packages/arduino/tools/arm-none-eabi-gcc/7-2017q4/bin/../lib/gcc/arm-none-eabi/7.2.1/../../../../arm-none-eabi/lib/thumb/v7e-m/fpv4-sp/hard\libc_nano.a(lib_a-impure.o)
__sf_fake_stdin                                   c:/sloeber/arduinoplugin/packages/arduino/tools/arm-none-eabi-gcc/7-2017q4/bin/../lib/gcc/arm-none-eabi/7.2.1/../../../../arm-none-eabi/lib/thumb/v7e-m/fpv4-sp/hard\libc_nano.a(lib_a-findfp.o)
                                                  c:/sloeber/arduinoplugin/packages/arduino/tools/arm-none-eabi-gcc/7-2017q4/bin/../lib/gcc/arm-none-eabi/7.2.1/../../../../arm-none-eabi/lib/thumb/v7e-m/fpv4-sp/hard\libc_nano.a(lib_a-fflush.o)
                                                  c:/sloeber/arduinoplugin/packages/arduino/tools/arm-none-eabi-gcc/7-2017q4/bin/../lib/gcc/arm-none-eabi/7.2.1/../../../../arm-none-eabi/lib/thumb/v7e-m/fpv4-sp/hard\libc_nano.a(lib_a-wsetup.o)
                                                  c:/sloeber/arduinoplugin/packages/arduino/tools/arm-none-eabi-gcc/7-2017q4/bin/../lib/gcc/arm-none-eabi/7.2.1/../../../../arm-none-eabi/lib/thumb/v7e-m/fpv4-sp/hard\libc_nano.a(lib_a-wbuf.o)
                                                  c:/sloeber/arduinoplugin/packages/arduino/tools/arm-none-eabi-gcc/7-2017q4/bin/../lib/gcc/arm-none-eabi/7.2.1/../../../../arm-none-eabi/lib/thumb/v7e-m/fpv4-sp/hard\libc_nano.a(lib_a-nano-vfprintf.o)
                                                  c:/sloeber/arduinoplugin/packages/arduino/tools/arm-none-eabi-gcc/7-2017q4/bin/../lib/gcc/arm-none-eabi/7.2.1/../../../../arm-none-eabi/lib/thumb/v7e-m/fpv4-sp/hard\libc_nano.a(lib_a-impure.o)
__sf_fake_stdout                                  c:/sloeber/arduinoplugin/packages/arduino/tools/arm-none-eabi-gcc/7-2017q4/bin/../lib/gcc/arm-none-eabi/7.2.1/../../../../arm-none-eabi/lib/thumb/v7e-m/fpv4-sp/hard\libc_nano.a(lib_a-findfp.o)
                                                  c:/sloeber/arduinoplugin/packages/arduino/tools/arm-none-eabi-gcc/7-2017q4/bin/../lib/gcc/arm-none-eabi/7.2.1/../../../../arm-none-eabi/lib/thumb/v7e-m/fpv4-sp/hard\libc_nano.a(lib_a-fflush.o)
                                                  c:/sloeber/arduinoplugin/packages/arduino/tools/arm-none-eabi-gcc/7-2017q4/bin/../lib/gcc/arm-none-eabi/7.2.1/../../../../arm-none-eabi/lib/thumb/v7e-m/fpv4-sp/hard\libc_nano.a(lib_a-wsetup.o)
                                                  c:/sloeber/arduinoplugin/packages/arduino/tools/arm-none-eabi-gcc/7-2017q4/bin/../lib/gcc/arm-none-eabi/7.2.1/../../../../arm-none-eabi/lib/thumb/v7e-m/fpv4-sp/hard\libc_nano.a(lib_a-wbuf.o)
                                                  c:/sloeber/arduinoplugin/packages/arduino/tools/arm-none-eabi-gcc/7-2017q4/bin/../lib/gcc/arm-none-eabi/7.2.1/../../../../arm-none-eabi/lib/thumb/v7e-m/fpv4-sp/hard\libc_nano.a(lib_a-nano-vfprintf.o)
                                                  c:/sloeber/arduinoplugin/packages/arduino/tools/arm-none-eabi-gcc/7-2017q4/bin/../lib/gcc/arm-none-eabi/7.2.1/../../../../arm-none-eabi/lib/thumb/v7e-m/fpv4-sp/hard\libc_nano.a(lib_a-impure.o)
__sflush_r                                        c:/sloeber/arduinoplugin/packages/arduino/tools/arm-none-eabi-gcc/7-2017q4/bin/../lib/gcc/arm-none-eabi/7.2.1/../../../../arm-none-eabi/lib/thumb/v7e-m/fpv4-sp/hard\libc_nano.a(lib_a-fflush.o)
__sfmoreglue                                      c:/sloeber/arduinoplugin/packages/arduino/tools/arm-none-eabi-gcc/7-2017q4/bin/../lib/gcc/arm-none-eabi/7.2.1/../../../../arm-none-eabi/lib/thumb/v7e-m/fpv4-sp/hard\libc_nano.a(lib_a-findfp.o)
__sfp                                             c:/sloeber/arduinoplugin/packages/arduino/tools/arm-none-eabi-gcc/7-2017q4/bin/../lib/gcc/arm-none-eabi/7.2.1/../../../../arm-none-eabi/lib/thumb/v7e-m/fpv4-sp/hard\libc_nano.a(lib_a-findfp.o)
__sfp_lock_acquire                                c:/sloeber/arduinoplugin/packages/arduino/tools/arm-none-eabi-gcc/7-2017q4/bin/../lib/gcc/arm-none-eabi/7.2.1/../../../../arm-none-eabi/lib/thumb/v7e-m/fpv4-sp/hard\libc_nano.a(lib_a-findfp.o)
__sfp_lock_release                                c:/sloeber/arduinoplugin/packages/arduino/tools/arm-none-eabi-gcc/7-2017q4/bin/../lib/gcc/arm-none-eabi/7.2.1/../../../../arm-none-eabi/lib/thumb/v7e-m/fpv4-sp/hard\libc_nano.a(lib_a-findfp.o)
__sfputs_r                                        c:/sloeber/arduinoplugin/packages/arduino/tools/arm-none-eabi-gcc/7-2017q4/bin/../lib/gcc/arm-none-eabi/7.2.1/../../../../arm-none-eabi/lib/thumb/v7e-m/fpv4-sp/hard\libc_nano.a(lib_a-nano-vfprintf.o)
__sfvwrite_r                                      c:/sloeber/arduinoplugin/packages/arduino/tools/arm-none-eabi-gcc/7-2017q4/bin/../lib/gcc/arm-none-eabi/7.2.1/../../../../arm-none-eabi/lib/thumb/v7e-m/fpv4-sp/hard\libc_nano.a(lib_a-fvwrite.o)
                                                  c:/sloeber/arduinoplugin/packages/arduino/tools/arm-none-eabi-gcc/7-2017q4/bin/../lib/gcc/arm-none-eabi/7.2.1/../../../../arm-none-eabi/lib/thumb/v7e-m/fpv4-sp/hard\libc_nano.a(lib_a-nano-vfprintf.o)
__sigtramp                                        c:/sloeber/arduinoplugin/packages/arduino/tools/arm-none-eabi-gcc/7-2017q4/bin/../lib/gcc/arm-none-eabi/7.2.1/../../../../arm-none-eabi/lib/thumb/v7e-m/fpv4-sp/hard\libc_nano.a(lib_a-signal.o)
__sigtramp_r                                      c:/sloeber/arduinoplugin/packages/arduino/tools/arm-none-eabi-gcc/7-2017q4/bin/../lib/gcc/arm-none-eabi/7.2.1/../../../../arm-none-eabi/lib/thumb/v7e-m/fpv4-sp/hard\libc_nano.a(lib_a-signal.o)
__sinit                                           c:/sloeber/arduinoplugin/packages/arduino/tools/arm-none-eabi-gcc/7-2017q4/bin/../lib/gcc/arm-none-eabi/7.2.1/../../../../arm-none-eabi/lib/thumb/v7e-m/fpv4-sp/hard\libc_nano.a(lib_a-findfp.o)
                                                  c:/sloeber/arduinoplugin/packages/arduino/tools/arm-none-eabi-gcc/7-2017q4/bin/../lib/gcc/arm-none-eabi/7.2.1/../../../../arm-none-eabi/lib/thumb/v7e-m/fpv4-sp/hard\libc_nano.a(lib_a-fflush.o)
                                                  c:/sloeber/arduinoplugin/packages/arduino/tools/arm-none-eabi-gcc/7-2017q4/bin/../lib/gcc/arm-none-eabi/7.2.1/../../../../arm-none-eabi/lib/thumb/v7e-m/fpv4-sp/hard\libc_nano.a(lib_a-wsetup.o)
                                                  c:/sloeber/arduinoplugin/packages/arduino/tools/arm-none-eabi-gcc/7-2017q4/bin/../lib/gcc/arm-none-eabi/7.2.1/../../../../arm-none-eabi/lib/thumb/v7e-m/fpv4-sp/hard\libc_nano.a(lib_a-wbuf.o)
                                                  c:/sloeber/arduinoplugin/packages/arduino/tools/arm-none-eabi-gcc/7-2017q4/bin/../lib/gcc/arm-none-eabi/7.2.1/../../../../arm-none-eabi/lib/thumb/v7e-m/fpv4-sp/hard\libc_nano.a(lib_a-nano-vfprintf.o)
__sinit_lock_acquire                              c:/sloeber/arduinoplugin/packages/arduino/tools/arm-none-eabi-gcc/7-2017q4/bin/../lib/gcc/arm-none-eabi/7.2.1/../../../../arm-none-eabi/lib/thumb/v7e-m/fpv4-sp/hard\libc_nano.a(lib_a-findfp.o)
__sinit_lock_release                              c:/sloeber/arduinoplugin/packages/arduino/tools/arm-none-eabi-gcc/7-2017q4/bin/../lib/gcc/arm-none-eabi/7.2.1/../../../../arm-none-eabi/lib/thumb/v7e-m/fpv4-sp/hard\libc_nano.a(lib_a-findfp.o)
__smakebuf_r                                      c:/sloeber/arduinoplugin/packages/arduino/tools/arm-none-eabi-gcc/7-2017q4/bin/../lib/gcc/arm-none-eabi/7.2.1/../../../../arm-none-eabi/lib/thumb/v7e-m/fpv4-sp/hard\libc_nano.a(lib_a-makebuf.o)
                                                  c:/sloeber/arduinoplugin/packages/arduino/tools/arm-none-eabi-gcc/7-2017q4/bin/../lib/gcc/arm-none-eabi/7.2.1/../../../../arm-none-eabi/lib/thumb/v7e-m/fpv4-sp/hard\libc_nano.a(lib_a-wsetup.o)
__sprint_r                                        c:/sloeber/arduinoplugin/packages/arduino/tools/arm-none-eabi-gcc/7-2017q4/bin/../lib/gcc/arm-none-eabi/7.2.1/../../../../arm-none-eabi/lib/thumb/v7e-m/fpv4-sp/hard\libc_nano.a(lib_a-nano-vfprintf.o)
__sread                                           c:/sloeber/arduinoplugin/packages/arduino/tools/arm-none-eabi-gcc/7-2017q4/bin/../lib/gcc/arm-none-eabi/7.2.1/../../../../arm-none-eabi/lib/thumb/v7e-m/fpv4-sp/hard\libc_nano.a(lib_a-stdio.o)
                                                  c:/sloeber/arduinoplugin/packages/arduino/tools/arm-none-eabi-gcc/7-2017q4/bin/../lib/gcc/arm-none-eabi/7.2.1/../../../../arm-none-eabi/lib/thumb/v7e-m/fpv4-sp/hard\libc_nano.a(lib_a-findfp.o)
__sseek                                           c:/sloeber/arduinoplugin/packages/arduino/tools/arm-none-eabi-gcc/7-2017q4/bin/../lib/gcc/arm-none-eabi/7.2.1/../../../../arm-none-eabi/lib/thumb/v7e-m/fpv4-sp/hard\libc_nano.a(lib_a-stdio.o)
                                                  c:/sloeber/arduinoplugin/packages/arduino/tools/arm-none-eabi-gcc/7-2017q4/bin/../lib/gcc/arm-none-eabi/7.2.1/../../../../arm-none-eabi/lib/thumb/v7e-m/fpv4-sp/hard\libc_nano.a(lib_a-findfp.o)
__ssprint_r                                       c:/sloeber/arduinoplugin/packages/arduino/tools/arm-none-eabi-gcc/7-2017q4/bin/../lib/gcc/arm-none-eabi/7.2.1/../../../../arm-none-eabi/lib/thumb/v7e-m/fpv4-sp/hard\libc_nano.a(lib_a-nano-svfprintf.o)
__ssputs_r                                        c:/sloeber/arduinoplugin/packages/arduino/tools/arm-none-eabi-gcc/7-2017q4/bin/../lib/gcc/arm-none-eabi/7.2.1/../../../../arm-none-eabi/lib/thumb/v7e-m/fpv4-sp/hard\libc_nano.a(lib_a-nano-svfprintf.o)
__stack                                           c:/sloeber/arduinoplugin/packages/arduino/tools/arm-none-eabi-gcc/7-2017q4/bin/../lib/gcc/arm-none-eabi/7.2.1/../../../../arm-none-eabi/lib/thumb/v7e-m/fpv4-sp/hard/crt0.o
__subdf3                                          c:/sloeber/arduinoplugin/packages/arduino/tools/arm-none-eabi-gcc/7-2017q4/bin/../lib/gcc/arm-none-eabi/7.2.1/thumb/v7e-m/fpv4-sp/hard\libgcc.a(_arm_addsubdf3.o)
__swbuf                                           c:/sloeber/arduinoplugin/packages/arduino/tools/arm-none-eabi-gcc/7-2017q4/bin/../lib/gcc/arm-none-eabi/7.2.1/../../../../arm-none-eabi/lib/thumb/v7e-m/fpv4-sp/hard\libc_nano.a(lib_a-wbuf.o)
__swbuf_r                                         c:/sloeber/arduinoplugin/packages/arduino/tools/arm-none-eabi-gcc/7-2017q4/bin/../lib/gcc/arm-none-eabi/7.2.1/../../../../arm-none-eabi/lib/thumb/v7e-m/fpv4-sp/hard\libc_nano.a(lib_a-wbuf.o)
                                                  c:/sloeber/arduinoplugin/packages/arduino/tools/arm-none-eabi-gcc/7-2017q4/bin/../lib/gcc/arm-none-eabi/7.2.1/../../../../arm-none-eabi/lib/thumb/v7e-m/fpv4-sp/hard\libc_nano.a(lib_a-nano-vfprintf.o)
__swhatbuf_r                                      c:/sloeber/arduinoplugin/packages/arduino/tools/arm-none-eabi-gcc/7-2017q4/bin/../lib/gcc/arm-none-eabi/7.2.1/../../../../arm-none-eabi/lib/thumb/v7e-m/fpv4-sp/hard\libc_nano.a(lib_a-makebuf.o)
__swrite                                          c:/sloeber/arduinoplugin/packages/arduino/tools/arm-none-eabi-gcc/7-2017q4/bin/../lib/gcc/arm-none-eabi/7.2.1/../../../../arm-none-eabi/lib/thumb/v7e-m/fpv4-sp/hard\libc_nano.a(lib_a-stdio.o)
                                                  c:/sloeber/arduinoplugin/packages/arduino/tools/arm-none-eabi-gcc/7-2017q4/bin/../lib/gcc/arm-none-eabi/7.2.1/../../../../arm-none-eabi/lib/thumb/v7e-m/fpv4-sp/hard\libc_nano.a(lib_a-findfp.o)
__swsetup_r                                       c:/sloeber/arduinoplugin/packages/arduino/tools/arm-none-eabi-gcc/7-2017q4/bin/../lib/gcc/arm-none-eabi/7.2.1/../../../../arm-none-eabi/lib/thumb/v7e-m/fpv4-sp/hard\libc_nano.a(lib_a-wsetup.o)
                                                  c:/sloeber/arduinoplugin/packages/arduino/tools/arm-none-eabi-gcc/7-2017q4/bin/../lib/gcc/arm-none-eabi/7.2.1/../../../../arm-none-eabi/lib/thumb/v7e-m/fpv4-sp/hard\libc_nano.a(lib_a-fvwrite.o)
                                                  c:/sloeber/arduinoplugin/packages/arduino/tools/arm-none-eabi-gcc/7-2017q4/bin/../lib/gcc/arm-none-eabi/7.2.1/../../../../arm-none-eabi/lib/thumb/v7e-m/fpv4-sp/hard\libc_nano.a(lib_a-wbuf.o)
                                                  c:/sloeber/arduinoplugin/packages/arduino/tools/arm-none-eabi-gcc/7-2017q4/bin/../lib/gcc/arm-none-eabi/7.2.1/../../../../arm-none-eabi/lib/thumb/v7e-m/fpv4-sp/hard\libc_nano.a(lib_a-nano-vfprintf.o)
__unorddf2                                        c:/sloeber/arduinoplugin/packages/arduino/tools/arm-none-eabi-gcc/7-2017q4/bin/../lib/gcc/arm-none-eabi/7.2.1/thumb/v7e-m/fpv4-sp/hard\libgcc.a(_arm_unorddf2.o)
_cleanup                                          c:/sloeber/arduinoplugin/packages/arduino/tools/arm-none-eabi-gcc/7-2017q4/bin/../lib/gcc/arm-none-eabi/7.2.1/../../../../arm-none-eabi/lib/thumb/v7e-m/fpv4-sp/hard\libc_nano.a(lib_a-findfp.o)
_cleanup_r                                        c:/sloeber/arduinoplugin/packages/arduino/tools/arm-none-eabi-gcc/7-2017q4/bin/../lib/gcc/arm-none-eabi/7.2.1/../../../../arm-none-eabi/lib/thumb/v7e-m/fpv4-sp/hard\libc_nano.a(lib_a-findfp.o)
                                                  c:/sloeber/arduinoplugin/packages/arduino/tools/arm-none-eabi-gcc/7-2017q4/bin/../lib/gcc/arm-none-eabi/7.2.1/../../../../arm-none-eabi/lib/thumb/v7e-m/fpv4-sp/hard\libc_nano.a(lib_a-makebuf.o)
_close                                            c:/sloeber/arduinoplugin/packages/arduino/tools/arm-none-eabi-gcc/7-2017q4/bin/../lib/gcc/arm-none-eabi/7.2.1/../../../../arm-none-eabi/lib/thumb/v7e-m/fpv4-sp/hard\libnosys.a(close.o)
                                                  c:/sloeber/arduinoplugin/packages/arduino/tools/arm-none-eabi-gcc/7-2017q4/bin/../lib/gcc/arm-none-eabi/7.2.1/../../../../arm-none-eabi/lib/thumb/v7e-m/fpv4-sp/hard\libc_nano.a(lib_a-closer.o)
_close_r                                          c:/sloeber/arduinoplugin/packages/arduino/tools/arm-none-eabi-gcc/7-2017q4/bin/../lib/gcc/arm-none-eabi/7.2.1/../../../../arm-none-eabi/lib/thumb/v7e-m/fpv4-sp/hard\libc_nano.a(lib_a-closer.o)
                                                  c:/sloeber/arduinoplugin/packages/arduino/tools/arm-none-eabi-gcc/7-2017q4/bin/../lib/gcc/arm-none-eabi/7.2.1/../../../../arm-none-eabi/lib/thumb/v7e-m/fpv4-sp/hard\libc_nano.a(lib_a-stdio.o)
_dry_run                                          C:/sloeber-workspace/Samd51_DmaTest/Release/arduino.ar(USBCore.cpp.o)
_exit                                             c:/sloeber/arduinoplugin/packages/arduino/tools/arm-none-eabi-gcc/7-2017q4/bin/../lib/gcc/arm-none-eabi/7.2.1/../../../../arm-none-eabi/lib/thumb/v7e-m/fpv4-sp/hard\libnosys.a(_exit.o)
                                                  c:/sloeber/arduinoplugin/packages/arduino/tools/arm-none-eabi-gcc/7-2017q4/bin/../lib/gcc/arm-none-eabi/7.2.1/../../../../arm-none-eabi/lib/thumb/v7e-m/fpv4-sp/hard\libc_nano.a(lib_a-abort.o)
                                                  c:/sloeber/arduinoplugin/packages/arduino/tools/arm-none-eabi-gcc/7-2017q4/bin/../lib/gcc/arm-none-eabi/7.2.1/../../../../arm-none-eabi/lib/thumb/v7e-m/fpv4-sp/hard\libc_nano.a(lib_a-exit.o)
_fflush_r                                         c:/sloeber/arduinoplugin/packages/arduino/tools/arm-none-eabi-gcc/7-2017q4/bin/../lib/gcc/arm-none-eabi/7.2.1/../../../../arm-none-eabi/lib/thumb/v7e-m/fpv4-sp/hard\libc_nano.a(lib_a-fflush.o)
                                                  c:/sloeber/arduinoplugin/packages/arduino/tools/arm-none-eabi-gcc/7-2017q4/bin/../lib/gcc/arm-none-eabi/7.2.1/../../../../arm-none-eabi/lib/thumb/v7e-m/fpv4-sp/hard\libc_nano.a(lib_a-fvwrite.o)
                                                  c:/sloeber/arduinoplugin/packages/arduino/tools/arm-none-eabi-gcc/7-2017q4/bin/../lib/gcc/arm-none-eabi/7.2.1/../../../../arm-none-eabi/lib/thumb/v7e-m/fpv4-sp/hard\libc_nano.a(lib_a-findfp.o)
                                                  c:/sloeber/arduinoplugin/packages/arduino/tools/arm-none-eabi-gcc/7-2017q4/bin/../lib/gcc/arm-none-eabi/7.2.1/../../../../arm-none-eabi/lib/thumb/v7e-m/fpv4-sp/hard\libc_nano.a(lib_a-wbuf.o)
_fini                                             c:/sloeber/arduinoplugin/packages/arduino/tools/arm-none-eabi-gcc/7-2017q4/bin/../lib/gcc/arm-none-eabi/7.2.1/thumb/v7e-m/fpv4-sp/hard/crti.o
_fiprintf_r                                       c:/sloeber/arduinoplugin/packages/arduino/tools/arm-none-eabi-gcc/7-2017q4/bin/../lib/gcc/arm-none-eabi/7.2.1/../../../../arm-none-eabi/lib/thumb/v7e-m/fpv4-sp/hard\libc_nano.a(lib_a-fprintf.o)
_fprintf_r                                        c:/sloeber/arduinoplugin/packages/arduino/tools/arm-none-eabi-gcc/7-2017q4/bin/../lib/gcc/arm-none-eabi/7.2.1/../../../../arm-none-eabi/lib/thumb/v7e-m/fpv4-sp/hard\libc_nano.a(lib_a-fprintf.o)
_free_r                                           c:/sloeber/arduinoplugin/packages/arduino/tools/arm-none-eabi-gcc/7-2017q4/bin/../lib/gcc/arm-none-eabi/7.2.1/../../../../arm-none-eabi/lib/thumb/v7e-m/fpv4-sp/hard\libc_nano.a(lib_a-nano-freer.o)
                                                  c:/sloeber/arduinoplugin/packages/arduino/tools/arm-none-eabi-gcc/7-2017q4/bin/../lib/gcc/arm-none-eabi/7.2.1/../../../../arm-none-eabi/lib/thumb/v7e-m/fpv4-sp/hard\libc_nano.a(lib_a-reent.o)
                                                  c:/sloeber/arduinoplugin/packages/arduino/tools/arm-none-eabi-gcc/7-2017q4/bin/../lib/gcc/arm-none-eabi/7.2.1/../../../../arm-none-eabi/lib/thumb/v7e-m/fpv4-sp/hard\libc_nano.a(lib_a-nano-svfprintf.o)
                                                  c:/sloeber/arduinoplugin/packages/arduino/tools/arm-none-eabi-gcc/7-2017q4/bin/../lib/gcc/arm-none-eabi/7.2.1/../../../../arm-none-eabi/lib/thumb/v7e-m/fpv4-sp/hard\libc_nano.a(lib_a-nano-reallocr.o)
                                                  c:/sloeber/arduinoplugin/packages/arduino/tools/arm-none-eabi-gcc/7-2017q4/bin/../lib/gcc/arm-none-eabi/7.2.1/../../../../arm-none-eabi/lib/thumb/v7e-m/fpv4-sp/hard\libc_nano.a(lib_a-fvwrite.o)
                                                  c:/sloeber/arduinoplugin/packages/arduino/tools/arm-none-eabi-gcc/7-2017q4/bin/../lib/gcc/arm-none-eabi/7.2.1/../../../../arm-none-eabi/lib/thumb/v7e-m/fpv4-sp/hard\libc_nano.a(lib_a-fflush.o)
                                                  c:/sloeber/arduinoplugin/packages/arduino/tools/arm-none-eabi-gcc/7-2017q4/bin/../lib/gcc/arm-none-eabi/7.2.1/../../../../arm-none-eabi/lib/thumb/v7e-m/fpv4-sp/hard\libc_nano.a(lib_a-wsetup.o)
                                                  c:/sloeber/arduinoplugin/packages/arduino/tools/arm-none-eabi-gcc/7-2017q4/bin/../lib/gcc/arm-none-eabi/7.2.1/../../../../arm-none-eabi/lib/thumb/v7e-m/fpv4-sp/hard\libc_nano.a(lib_a-nano-malignr.o)
                                                  c:/sloeber/arduinoplugin/packages/arduino/tools/arm-none-eabi-gcc/7-2017q4/bin/../lib/gcc/arm-none-eabi/7.2.1/../../../../arm-none-eabi/lib/thumb/v7e-m/fpv4-sp/hard\libc_nano.a(lib_a-malloc.o)
_fstat                                            c:/sloeber/arduinoplugin/packages/arduino/tools/arm-none-eabi-gcc/7-2017q4/bin/../lib/gcc/arm-none-eabi/7.2.1/../../../../arm-none-eabi/lib/thumb/v7e-m/fpv4-sp/hard\libnosys.a(fstat.o)
                                                  c:/sloeber/arduinoplugin/packages/arduino/tools/arm-none-eabi-gcc/7-2017q4/bin/../lib/gcc/arm-none-eabi/7.2.1/../../../../arm-none-eabi/lib/thumb/v7e-m/fpv4-sp/hard\libc_nano.a(lib_a-fstatr.o)
_fstat_r                                          c:/sloeber/arduinoplugin/packages/arduino/tools/arm-none-eabi-gcc/7-2017q4/bin/../lib/gcc/arm-none-eabi/7.2.1/../../../../arm-none-eabi/lib/thumb/v7e-m/fpv4-sp/hard\libc_nano.a(lib_a-fstatr.o)
                                                  c:/sloeber/arduinoplugin/packages/arduino/tools/arm-none-eabi-gcc/7-2017q4/bin/../lib/gcc/arm-none-eabi/7.2.1/../../../../arm-none-eabi/lib/thumb/v7e-m/fpv4-sp/hard\libc_nano.a(lib_a-makebuf.o)
_fwalk                                            c:/sloeber/arduinoplugin/packages/arduino/tools/arm-none-eabi-gcc/7-2017q4/bin/../lib/gcc/arm-none-eabi/7.2.1/../../../../arm-none-eabi/lib/thumb/v7e-m/fpv4-sp/hard\libc_nano.a(lib_a-fwalk.o)
                                                  c:/sloeber/arduinoplugin/packages/arduino/tools/arm-none-eabi-gcc/7-2017q4/bin/../lib/gcc/arm-none-eabi/7.2.1/../../../../arm-none-eabi/lib/thumb/v7e-m/fpv4-sp/hard\libc_nano.a(lib_a-findfp.o)
_fwalk_reent                                      c:/sloeber/arduinoplugin/packages/arduino/tools/arm-none-eabi-gcc/7-2017q4/bin/../lib/gcc/arm-none-eabi/7.2.1/../../../../arm-none-eabi/lib/thumb/v7e-m/fpv4-sp/hard\libc_nano.a(lib_a-fwalk.o)
                                                  c:/sloeber/arduinoplugin/packages/arduino/tools/arm-none-eabi-gcc/7-2017q4/bin/../lib/gcc/arm-none-eabi/7.2.1/../../../../arm-none-eabi/lib/thumb/v7e-m/fpv4-sp/hard\libc_nano.a(lib_a-findfp.o)
                                                  c:/sloeber/arduinoplugin/packages/arduino/tools/arm-none-eabi-gcc/7-2017q4/bin/../lib/gcc/arm-none-eabi/7.2.1/../../../../arm-none-eabi/lib/thumb/v7e-m/fpv4-sp/hard\libc_nano.a(lib_a-fflush.o)
_getpid                                           c:/sloeber/arduinoplugin/packages/arduino/tools/arm-none-eabi-gcc/7-2017q4/bin/../lib/gcc/arm-none-eabi/7.2.1/../../../../arm-none-eabi/lib/thumb/v7e-m/fpv4-sp/hard\libnosys.a(getpid.o)
                                                  c:/sloeber/arduinoplugin/packages/arduino/tools/arm-none-eabi-gcc/7-2017q4/bin/../lib/gcc/arm-none-eabi/7.2.1/../../../../arm-none-eabi/lib/thumb/v7e-m/fpv4-sp/hard\libc_nano.a(lib_a-signalr.o)
_getpid_r                                         c:/sloeber/arduinoplugin/packages/arduino/tools/arm-none-eabi-gcc/7-2017q4/bin/../lib/gcc/arm-none-eabi/7.2.1/../../../../arm-none-eabi/lib/thumb/v7e-m/fpv4-sp/hard\libc_nano.a(lib_a-signalr.o)
                                                  c:/sloeber/arduinoplugin/packages/arduino/tools/arm-none-eabi-gcc/7-2017q4/bin/../lib/gcc/arm-none-eabi/7.2.1/../../../../arm-none-eabi/lib/thumb/v7e-m/fpv4-sp/hard\libc_nano.a(lib_a-signal.o)
_global_impure_ptr                                c:/sloeber/arduinoplugin/packages/arduino/tools/arm-none-eabi-gcc/7-2017q4/bin/../lib/gcc/arm-none-eabi/7.2.1/../../../../arm-none-eabi/lib/thumb/v7e-m/fpv4-sp/hard\libc_nano.a(lib_a-impure.o)
                                                  c:/sloeber/arduinoplugin/packages/arduino/tools/arm-none-eabi-gcc/7-2017q4/bin/../lib/gcc/arm-none-eabi/7.2.1/../../../../arm-none-eabi/lib/thumb/v7e-m/fpv4-sp/hard\libc_nano.a(lib_a-findfp.o)
                                                  c:/sloeber/arduinoplugin/packages/arduino/tools/arm-none-eabi-gcc/7-2017q4/bin/../lib/gcc/arm-none-eabi/7.2.1/../../../../arm-none-eabi/lib/thumb/v7e-m/fpv4-sp/hard\libc_nano.a(lib_a-fflush.o)
                                                  c:/sloeber/arduinoplugin/packages/arduino/tools/arm-none-eabi-gcc/7-2017q4/bin/../lib/gcc/arm-none-eabi/7.2.1/../../../../arm-none-eabi/lib/thumb/v7e-m/fpv4-sp/hard\libc_nano.a(lib_a-exit.o)
_impure_ptr                                       c:/sloeber/arduinoplugin/packages/arduino/tools/arm-none-eabi-gcc/7-2017q4/bin/../lib/gcc/arm-none-eabi/7.2.1/../../../../arm-none-eabi/lib/thumb/v7e-m/fpv4-sp/hard\libc_nano.a(lib_a-impure.o)
                                                  c:/sloeber/arduinoplugin/packages/arduino/tools/arm-none-eabi-gcc/7-2017q4/bin/../lib/gcc/arm-none-eabi/7.2.1/../../../../arm-none-eabi/lib/thumb/v7e-m/fpv4-sp/hard\libc_nano.a(lib_a-signal.o)
                                                  c:/sloeber/arduinoplugin/packages/arduino/tools/arm-none-eabi-gcc/7-2017q4/bin/../lib/gcc/arm-none-eabi/7.2.1/../../../../arm-none-eabi/lib/thumb/v7e-m/fpv4-sp/hard\libc_nano.a(lib_a-reent.o)
                                                  c:/sloeber/arduinoplugin/packages/arduino/tools/arm-none-eabi-gcc/7-2017q4/bin/../lib/gcc/arm-none-eabi/7.2.1/../../../../arm-none-eabi/lib/thumb/v7e-m/fpv4-sp/hard\libc_nano.a(lib_a-findfp.o)
                                                  c:/sloeber/arduinoplugin/packages/arduino/tools/arm-none-eabi-gcc/7-2017q4/bin/../lib/gcc/arm-none-eabi/7.2.1/../../../../arm-none-eabi/lib/thumb/v7e-m/fpv4-sp/hard\libc_nano.a(lib_a-fflush.o)
                                                  c:/sloeber/arduinoplugin/packages/arduino/tools/arm-none-eabi-gcc/7-2017q4/bin/../lib/gcc/arm-none-eabi/7.2.1/../../../../arm-none-eabi/lib/thumb/v7e-m/fpv4-sp/hard\libc_nano.a(lib_a-wsetup.o)
                                                  c:/sloeber/arduinoplugin/packages/arduino/tools/arm-none-eabi-gcc/7-2017q4/bin/../lib/gcc/arm-none-eabi/7.2.1/../../../../arm-none-eabi/lib/thumb/v7e-m/fpv4-sp/hard\libc_nano.a(lib_a-wbuf.o)
                                                  c:/sloeber/arduinoplugin/packages/arduino/tools/arm-none-eabi-gcc/7-2017q4/bin/../lib/gcc/arm-none-eabi/7.2.1/../../../../arm-none-eabi/lib/thumb/v7e-m/fpv4-sp/hard\libc_nano.a(lib_a-vsnprintf.o)
                                                  c:/sloeber/arduinoplugin/packages/arduino/tools/arm-none-eabi-gcc/7-2017q4/bin/../lib/gcc/arm-none-eabi/7.2.1/../../../../arm-none-eabi/lib/thumb/v7e-m/fpv4-sp/hard\libc_nano.a(lib_a-nano-vfprintf.o)
                                                  c:/sloeber/arduinoplugin/packages/arduino/tools/arm-none-eabi-gcc/7-2017q4/bin/../lib/gcc/arm-none-eabi/7.2.1/../../../../arm-none-eabi/lib/thumb/v7e-m/fpv4-sp/hard\libc_nano.a(lib_a-malloc.o)
                                                  c:/sloeber/arduinoplugin/packages/arduino/tools/arm-none-eabi-gcc/7-2017q4/bin/../lib/gcc/arm-none-eabi/7.2.1/../../../../arm-none-eabi/lib/thumb/v7e-m/fpv4-sp/hard\libc_nano.a(lib_a-malign.o)
                                                  c:/sloeber/arduinoplugin/packages/arduino/tools/arm-none-eabi-gcc/7-2017q4/bin/../lib/gcc/arm-none-eabi/7.2.1/../../../../arm-none-eabi/lib/thumb/v7e-m/fpv4-sp/hard\libc_nano.a(lib_a-fprintf.o)
                                                  c:/sloeber/arduinoplugin/packages/arduino/tools/arm-none-eabi-gcc/7-2017q4/bin/../lib/gcc/arm-none-eabi/7.2.1/../../../../arm-none-eabi/lib/thumb/v7e-m/fpv4-sp/hard\libc_nano.a(lib_a-errno.o)
                                                  c:/sloeber/arduinoplugin/packages/arduino/tools/arm-none-eabi-gcc/7-2017q4/bin/../lib/gcc/arm-none-eabi/7.2.1/../../../../arm-none-eabi/lib/thumb/v7e-m/fpv4-sp/hard\libc_nano.a(lib_a-assert.o)
_init                                             c:/sloeber/arduinoplugin/packages/arduino/tools/arm-none-eabi-gcc/7-2017q4/bin/../lib/gcc/arm-none-eabi/7.2.1/thumb/v7e-m/fpv4-sp/hard/crti.o
                                                  c:/sloeber/arduinoplugin/packages/arduino/tools/arm-none-eabi-gcc/7-2017q4/bin/../lib/gcc/arm-none-eabi/7.2.1/../../../../arm-none-eabi/lib/thumb/v7e-m/fpv4-sp/hard\libc_nano.a(lib_a-init.o)
_init_signal                                      c:/sloeber/arduinoplugin/packages/arduino/tools/arm-none-eabi-gcc/7-2017q4/bin/../lib/gcc/arm-none-eabi/7.2.1/../../../../arm-none-eabi/lib/thumb/v7e-m/fpv4-sp/hard\libc_nano.a(lib_a-signal.o)
_init_signal_r                                    c:/sloeber/arduinoplugin/packages/arduino/tools/arm-none-eabi-gcc/7-2017q4/bin/../lib/gcc/arm-none-eabi/7.2.1/../../../../arm-none-eabi/lib/thumb/v7e-m/fpv4-sp/hard\libc_nano.a(lib_a-signal.o)
_isatty                                           c:/sloeber/arduinoplugin/packages/arduino/tools/arm-none-eabi-gcc/7-2017q4/bin/../lib/gcc/arm-none-eabi/7.2.1/../../../../arm-none-eabi/lib/thumb/v7e-m/fpv4-sp/hard\libnosys.a(isatty.o)
                                                  c:/sloeber/arduinoplugin/packages/arduino/tools/arm-none-eabi-gcc/7-2017q4/bin/../lib/gcc/arm-none-eabi/7.2.1/../../../../arm-none-eabi/lib/thumb/v7e-m/fpv4-sp/hard\libc_nano.a(lib_a-isattyr.o)
_isatty_r                                         c:/sloeber/arduinoplugin/packages/arduino/tools/arm-none-eabi-gcc/7-2017q4/bin/../lib/gcc/arm-none-eabi/7.2.1/../../../../arm-none-eabi/lib/thumb/v7e-m/fpv4-sp/hard\libc_nano.a(lib_a-isattyr.o)
                                                  c:/sloeber/arduinoplugin/packages/arduino/tools/arm-none-eabi-gcc/7-2017q4/bin/../lib/gcc/arm-none-eabi/7.2.1/../../../../arm-none-eabi/lib/thumb/v7e-m/fpv4-sp/hard\libc_nano.a(lib_a-makebuf.o)
_kill                                             c:/sloeber/arduinoplugin/packages/arduino/tools/arm-none-eabi-gcc/7-2017q4/bin/../lib/gcc/arm-none-eabi/7.2.1/../../../../arm-none-eabi/lib/thumb/v7e-m/fpv4-sp/hard\libnosys.a(kill.o)
                                                  c:/sloeber/arduinoplugin/packages/arduino/tools/arm-none-eabi-gcc/7-2017q4/bin/../lib/gcc/arm-none-eabi/7.2.1/../../../../arm-none-eabi/lib/thumb/v7e-m/fpv4-sp/hard\libc_nano.a(lib_a-signalr.o)
_kill_r                                           c:/sloeber/arduinoplugin/packages/arduino/tools/arm-none-eabi-gcc/7-2017q4/bin/../lib/gcc/arm-none-eabi/7.2.1/../../../../arm-none-eabi/lib/thumb/v7e-m/fpv4-sp/hard\libc_nano.a(lib_a-signalr.o)
                                                  c:/sloeber/arduinoplugin/packages/arduino/tools/arm-none-eabi-gcc/7-2017q4/bin/../lib/gcc/arm-none-eabi/7.2.1/../../../../arm-none-eabi/lib/thumb/v7e-m/fpv4-sp/hard\libc_nano.a(lib_a-signal.o)
_lseek                                            c:/sloeber/arduinoplugin/packages/arduino/tools/arm-none-eabi-gcc/7-2017q4/bin/../lib/gcc/arm-none-eabi/7.2.1/../../../../arm-none-eabi/lib/thumb/v7e-m/fpv4-sp/hard\libnosys.a(lseek.o)
                                                  c:/sloeber/arduinoplugin/packages/arduino/tools/arm-none-eabi-gcc/7-2017q4/bin/../lib/gcc/arm-none-eabi/7.2.1/../../../../arm-none-eabi/lib/thumb/v7e-m/fpv4-sp/hard\libc_nano.a(lib_a-lseekr.o)
_lseek_r                                          c:/sloeber/arduinoplugin/packages/arduino/tools/arm-none-eabi-gcc/7-2017q4/bin/../lib/gcc/arm-none-eabi/7.2.1/../../../../arm-none-eabi/lib/thumb/v7e-m/fpv4-sp/hard\libc_nano.a(lib_a-lseekr.o)
                                                  c:/sloeber/arduinoplugin/packages/arduino/tools/arm-none-eabi-gcc/7-2017q4/bin/../lib/gcc/arm-none-eabi/7.2.1/../../../../arm-none-eabi/lib/thumb/v7e-m/fpv4-sp/hard\libc_nano.a(lib_a-stdio.o)
_mainCRTStartup                                   c:/sloeber/arduinoplugin/packages/arduino/tools/arm-none-eabi-gcc/7-2017q4/bin/../lib/gcc/arm-none-eabi/7.2.1/../../../../arm-none-eabi/lib/thumb/v7e-m/fpv4-sp/hard/crt0.o
_malloc_r                                         c:/sloeber/arduinoplugin/packages/arduino/tools/arm-none-eabi-gcc/7-2017q4/bin/../lib/gcc/arm-none-eabi/7.2.1/../../../../arm-none-eabi/lib/thumb/v7e-m/fpv4-sp/hard\libc_nano.a(lib_a-nano-mallocr.o)
                                                  c:/sloeber/arduinoplugin/packages/arduino/tools/arm-none-eabi-gcc/7-2017q4/bin/../lib/gcc/arm-none-eabi/7.2.1/../../../../arm-none-eabi/lib/thumb/v7e-m/fpv4-sp/hard\libc_nano.a(lib_a-signal.o)
                                                  c:/sloeber/arduinoplugin/packages/arduino/tools/arm-none-eabi-gcc/7-2017q4/bin/../lib/gcc/arm-none-eabi/7.2.1/../../../../arm-none-eabi/lib/thumb/v7e-m/fpv4-sp/hard\libc_nano.a(lib_a-nano-svfprintf.o)
                                                  c:/sloeber/arduinoplugin/packages/arduino/tools/arm-none-eabi-gcc/7-2017q4/bin/../lib/gcc/arm-none-eabi/7.2.1/../../../../arm-none-eabi/lib/thumb/v7e-m/fpv4-sp/hard\libc_nano.a(lib_a-nano-reallocr.o)
                                                  c:/sloeber/arduinoplugin/packages/arduino/tools/arm-none-eabi-gcc/7-2017q4/bin/../lib/gcc/arm-none-eabi/7.2.1/../../../../arm-none-eabi/lib/thumb/v7e-m/fpv4-sp/hard\libc_nano.a(lib_a-makebuf.o)
                                                  c:/sloeber/arduinoplugin/packages/arduino/tools/arm-none-eabi-gcc/7-2017q4/bin/../lib/gcc/arm-none-eabi/7.2.1/../../../../arm-none-eabi/lib/thumb/v7e-m/fpv4-sp/hard\libc_nano.a(lib_a-fvwrite.o)
                                                  c:/sloeber/arduinoplugin/packages/arduino/tools/arm-none-eabi-gcc/7-2017q4/bin/../lib/gcc/arm-none-eabi/7.2.1/../../../../arm-none-eabi/lib/thumb/v7e-m/fpv4-sp/hard\libc_nano.a(lib_a-findfp.o)
                                                  c:/sloeber/arduinoplugin/packages/arduino/tools/arm-none-eabi-gcc/7-2017q4/bin/../lib/gcc/arm-none-eabi/7.2.1/../../../../arm-none-eabi/lib/thumb/v7e-m/fpv4-sp/hard\libc_nano.a(lib_a-nano-malignr.o)
                                                  c:/sloeber/arduinoplugin/packages/arduino/tools/arm-none-eabi-gcc/7-2017q4/bin/../lib/gcc/arm-none-eabi/7.2.1/../../../../arm-none-eabi/lib/thumb/v7e-m/fpv4-sp/hard\libc_nano.a(lib_a-malloc.o)
_malloc_usable_size_r                             c:/sloeber/arduinoplugin/packages/arduino/tools/arm-none-eabi-gcc/7-2017q4/bin/../lib/gcc/arm-none-eabi/7.2.1/../../../../arm-none-eabi/lib/thumb/v7e-m/fpv4-sp/hard\libc_nano.a(lib_a-nano-msizer.o)
                                                  c:/sloeber/arduinoplugin/packages/arduino/tools/arm-none-eabi-gcc/7-2017q4/bin/../lib/gcc/arm-none-eabi/7.2.1/../../../../arm-none-eabi/lib/thumb/v7e-m/fpv4-sp/hard\libc_nano.a(lib_a-nano-reallocr.o)
_memalign_r                                       c:/sloeber/arduinoplugin/packages/arduino/tools/arm-none-eabi-gcc/7-2017q4/bin/../lib/gcc/arm-none-eabi/7.2.1/../../../../arm-none-eabi/lib/thumb/v7e-m/fpv4-sp/hard\libc_nano.a(lib_a-nano-malignr.o)
                                                  c:/sloeber/arduinoplugin/packages/arduino/tools/arm-none-eabi-gcc/7-2017q4/bin/../lib/gcc/arm-none-eabi/7.2.1/../../../../arm-none-eabi/lib/thumb/v7e-m/fpv4-sp/hard\libc_nano.a(lib_a-malign.o)
_pack_buffer                                      C:/sloeber-workspace/Samd51_DmaTest/Release/arduino.ar(USBCore.cpp.o)
_pack_message                                     C:/sloeber-workspace/Samd51_DmaTest/Release/arduino.ar(USBCore.cpp.o)
_pack_size                                        C:/sloeber-workspace/Samd51_DmaTest/Release/arduino.ar(USBCore.cpp.o)
_printf_common                                    c:/sloeber/arduinoplugin/packages/arduino/tools/arm-none-eabi-gcc/7-2017q4/bin/../lib/gcc/arm-none-eabi/7.2.1/../../../../arm-none-eabi/lib/thumb/v7e-m/fpv4-sp/hard\libc_nano.a(lib_a-nano-vfprintf_i.o)
_printf_float                                     c:/sloeber/arduinoplugin/packages/arduino/tools/arm-none-eabi-gcc/7-2017q4/bin/../lib/gcc/arm-none-eabi/7.2.1/../../../../arm-none-eabi/lib/thumb/v7e-m/fpv4-sp/hard\libc_nano.a(lib_a-nano-svfprintf.o)
                                                  c:/sloeber/arduinoplugin/packages/arduino/tools/arm-none-eabi-gcc/7-2017q4/bin/../lib/gcc/arm-none-eabi/7.2.1/../../../../arm-none-eabi/lib/thumb/v7e-m/fpv4-sp/hard\libc_nano.a(lib_a-nano-vfprintf.o)
_printf_i                                         c:/sloeber/arduinoplugin/packages/arduino/tools/arm-none-eabi-gcc/7-2017q4/bin/../lib/gcc/arm-none-eabi/7.2.1/../../../../arm-none-eabi/lib/thumb/v7e-m/fpv4-sp/hard\libc_nano.a(lib_a-nano-vfprintf_i.o)
                                                  c:/sloeber/arduinoplugin/packages/arduino/tools/arm-none-eabi-gcc/7-2017q4/bin/../lib/gcc/arm-none-eabi/7.2.1/../../../../arm-none-eabi/lib/thumb/v7e-m/fpv4-sp/hard\libc_nano.a(lib_a-nano-svfprintf.o)
                                                  c:/sloeber/arduinoplugin/packages/arduino/tools/arm-none-eabi-gcc/7-2017q4/bin/../lib/gcc/arm-none-eabi/7.2.1/../../../../arm-none-eabi/lib/thumb/v7e-m/fpv4-sp/hard\libc_nano.a(lib_a-nano-vfprintf.o)
_raise_r                                          c:/sloeber/arduinoplugin/packages/arduino/tools/arm-none-eabi-gcc/7-2017q4/bin/../lib/gcc/arm-none-eabi/7.2.1/../../../../arm-none-eabi/lib/thumb/v7e-m/fpv4-sp/hard\libc_nano.a(lib_a-signal.o)
_read                                             c:/sloeber/arduinoplugin/packages/arduino/tools/arm-none-eabi-gcc/7-2017q4/bin/../lib/gcc/arm-none-eabi/7.2.1/../../../../arm-none-eabi/lib/thumb/v7e-m/fpv4-sp/hard\libnosys.a(read.o)
                                                  c:/sloeber/arduinoplugin/packages/arduino/tools/arm-none-eabi-gcc/7-2017q4/bin/../lib/gcc/arm-none-eabi/7.2.1/../../../../arm-none-eabi/lib/thumb/v7e-m/fpv4-sp/hard\libc_nano.a(lib_a-readr.o)
_read_r                                           c:/sloeber/arduinoplugin/packages/arduino/tools/arm-none-eabi-gcc/7-2017q4/bin/../lib/gcc/arm-none-eabi/7.2.1/../../../../arm-none-eabi/lib/thumb/v7e-m/fpv4-sp/hard\libc_nano.a(lib_a-readr.o)
                                                  c:/sloeber/arduinoplugin/packages/arduino/tools/arm-none-eabi-gcc/7-2017q4/bin/../lib/gcc/arm-none-eabi/7.2.1/../../../../arm-none-eabi/lib/thumb/v7e-m/fpv4-sp/hard\libc_nano.a(lib_a-stdio.o)
_realloc_r                                        c:/sloeber/arduinoplugin/packages/arduino/tools/arm-none-eabi-gcc/7-2017q4/bin/../lib/gcc/arm-none-eabi/7.2.1/../../../../arm-none-eabi/lib/thumb/v7e-m/fpv4-sp/hard\libc_nano.a(lib_a-nano-reallocr.o)
                                                  c:/sloeber/arduinoplugin/packages/arduino/tools/arm-none-eabi-gcc/7-2017q4/bin/../lib/gcc/arm-none-eabi/7.2.1/../../../../arm-none-eabi/lib/thumb/v7e-m/fpv4-sp/hard\libc_nano.a(lib_a-nano-svfprintf.o)
                                                  c:/sloeber/arduinoplugin/packages/arduino/tools/arm-none-eabi-gcc/7-2017q4/bin/../lib/gcc/arm-none-eabi/7.2.1/../../../../arm-none-eabi/lib/thumb/v7e-m/fpv4-sp/hard\libc_nano.a(lib_a-fvwrite.o)
_reclaim_reent                                    c:/sloeber/arduinoplugin/packages/arduino/tools/arm-none-eabi-gcc/7-2017q4/bin/../lib/gcc/arm-none-eabi/7.2.1/../../../../arm-none-eabi/lib/thumb/v7e-m/fpv4-sp/hard\libc_nano.a(lib_a-reent.o)
_sbrk                                             c:/sloeber/arduinoplugin/packages/arduino/tools/arm-none-eabi-gcc/7-2017q4/bin/../lib/gcc/arm-none-eabi/7.2.1/../../../../arm-none-eabi/lib/thumb/v7e-m/fpv4-sp/hard\libnosys.a(sbrk.o)
                                                  c:/sloeber/arduinoplugin/packages/arduino/tools/arm-none-eabi-gcc/7-2017q4/bin/../lib/gcc/arm-none-eabi/7.2.1/../../../../arm-none-eabi/lib/thumb/v7e-m/fpv4-sp/hard\libc_nano.a(lib_a-sbrkr.o)
_sbrk_r                                           c:/sloeber/arduinoplugin/packages/arduino/tools/arm-none-eabi-gcc/7-2017q4/bin/../lib/gcc/arm-none-eabi/7.2.1/../../../../arm-none-eabi/lib/thumb/v7e-m/fpv4-sp/hard\libc_nano.a(lib_a-sbrkr.o)
                                                  c:/sloeber/arduinoplugin/packages/arduino/tools/arm-none-eabi-gcc/7-2017q4/bin/../lib/gcc/arm-none-eabi/7.2.1/../../../../arm-none-eabi/lib/thumb/v7e-m/fpv4-sp/hard\libc_nano.a(lib_a-nano-mallocr.o)
_serialPeek                                       C:/sloeber-workspace/Samd51_DmaTest/Release/arduino.ar(CDC.cpp.o)
_signal_r                                         c:/sloeber/arduinoplugin/packages/arduino/tools/arm-none-eabi-gcc/7-2017q4/bin/../lib/gcc/arm-none-eabi/7.2.1/../../../../arm-none-eabi/lib/thumb/v7e-m/fpv4-sp/hard\libc_nano.a(lib_a-signal.o)
_start                                            c:/sloeber/arduinoplugin/packages/arduino/tools/arm-none-eabi-gcc/7-2017q4/bin/../lib/gcc/arm-none-eabi/7.2.1/../../../../arm-none-eabi/lib/thumb/v7e-m/fpv4-sp/hard/crt0.o
_svfiprintf_r                                     c:/sloeber/arduinoplugin/packages/arduino/tools/arm-none-eabi-gcc/7-2017q4/bin/../lib/gcc/arm-none-eabi/7.2.1/../../../../arm-none-eabi/lib/thumb/v7e-m/fpv4-sp/hard\libc_nano.a(lib_a-nano-svfprintf.o)
_svfprintf_r                                      c:/sloeber/arduinoplugin/packages/arduino/tools/arm-none-eabi-gcc/7-2017q4/bin/../lib/gcc/arm-none-eabi/7.2.1/../../../../arm-none-eabi/lib/thumb/v7e-m/fpv4-sp/hard\libc_nano.a(lib_a-nano-svfprintf.o)
                                                  c:/sloeber/arduinoplugin/packages/arduino/tools/arm-none-eabi-gcc/7-2017q4/bin/../lib/gcc/arm-none-eabi/7.2.1/../../../../arm-none-eabi/lib/thumb/v7e-m/fpv4-sp/hard\libc_nano.a(lib_a-vsnprintf.o)
_usbConfiguration                                 C:/sloeber-workspace/Samd51_DmaTest/Release/arduino.ar(USBCore.cpp.o)
_usbSetInterface                                  C:/sloeber-workspace/Samd51_DmaTest/Release/arduino.ar(USBCore.cpp.o)
_vfiprintf_r                                      c:/sloeber/arduinoplugin/packages/arduino/tools/arm-none-eabi-gcc/7-2017q4/bin/../lib/gcc/arm-none-eabi/7.2.1/../../../../arm-none-eabi/lib/thumb/v7e-m/fpv4-sp/hard\libc_nano.a(lib_a-nano-vfprintf.o)
_vfprintf_r                                       c:/sloeber/arduinoplugin/packages/arduino/tools/arm-none-eabi-gcc/7-2017q4/bin/../lib/gcc/arm-none-eabi/7.2.1/../../../../arm-none-eabi/lib/thumb/v7e-m/fpv4-sp/hard\libc_nano.a(lib_a-nano-vfprintf.o)
                                                  c:/sloeber/arduinoplugin/packages/arduino/tools/arm-none-eabi-gcc/7-2017q4/bin/../lib/gcc/arm-none-eabi/7.2.1/../../../../arm-none-eabi/lib/thumb/v7e-m/fpv4-sp/hard\libc_nano.a(lib_a-fprintf.o)
_vsniprintf_r                                     c:/sloeber/arduinoplugin/packages/arduino/tools/arm-none-eabi-gcc/7-2017q4/bin/../lib/gcc/arm-none-eabi/7.2.1/../../../../arm-none-eabi/lib/thumb/v7e-m/fpv4-sp/hard\libc_nano.a(lib_a-vsnprintf.o)
_vsnprintf_r                                      c:/sloeber/arduinoplugin/packages/arduino/tools/arm-none-eabi-gcc/7-2017q4/bin/../lib/gcc/arm-none-eabi/7.2.1/../../../../arm-none-eabi/lib/thumb/v7e-m/fpv4-sp/hard\libc_nano.a(lib_a-vsnprintf.o)
_write                                            c:/sloeber/arduinoplugin/packages/arduino/tools/arm-none-eabi-gcc/7-2017q4/bin/../lib/gcc/arm-none-eabi/7.2.1/../../../../arm-none-eabi/lib/thumb/v7e-m/fpv4-sp/hard\libnosys.a(write.o)
                                                  c:/sloeber/arduinoplugin/packages/arduino/tools/arm-none-eabi-gcc/7-2017q4/bin/../lib/gcc/arm-none-eabi/7.2.1/../../../../arm-none-eabi/lib/thumb/v7e-m/fpv4-sp/hard\libc_nano.a(lib_a-writer.o)
_write_r                                          c:/sloeber/arduinoplugin/packages/arduino/tools/arm-none-eabi-gcc/7-2017q4/bin/../lib/gcc/arm-none-eabi/7.2.1/../../../../arm-none-eabi/lib/thumb/v7e-m/fpv4-sp/hard\libc_nano.a(lib_a-writer.o)
                                                  c:/sloeber/arduinoplugin/packages/arduino/tools/arm-none-eabi-gcc/7-2017q4/bin/../lib/gcc/arm-none-eabi/7.2.1/../../../../arm-none-eabi/lib/thumb/v7e-m/fpv4-sp/hard\libc_nano.a(lib_a-stdio.o)
abort                                             c:/sloeber/arduinoplugin/packages/arduino/tools/arm-none-eabi-gcc/7-2017q4/bin/../lib/gcc/arm-none-eabi/7.2.1/../../../../arm-none-eabi/lib/thumb/v7e-m/fpv4-sp/hard\libc_nano.a(lib_a-abort.o)
                                                  c:/sloeber/arduinoplugin/packages/arduino/tools/arm-none-eabi-gcc/7-2017q4/bin/../lib/gcc/arm-none-eabi/7.2.1/../../../../arm-none-eabi/lib/thumb/v7e-m/fpv4-sp/hard\libc_nano.a(lib_a-assert.o)
analogRead                                        C:/sloeber-workspace/Samd51_DmaTest/Release/arduino.ar(wiring_analog.c.o)
analogReadResolution                              C:/sloeber-workspace/Samd51_DmaTest/Release/arduino.ar(wiring_analog.c.o)
analogReference                                   C:/sloeber-workspace/Samd51_DmaTest/Release/arduino.ar(wiring_analog.c.o)
                                                  C:/sloeber-workspace/Samd51_DmaTest/Release/arduino.ar(wiring.c.o)
analogWrite                                       C:/sloeber-workspace/Samd51_DmaTest/Release/arduino.ar(wiring_analog.c.o)
analogWriteResolution                             C:/sloeber-workspace/Samd51_DmaTest/Release/arduino.ar(wiring_analog.c.o)
atexit                                            c:/sloeber/arduinoplugin/packages/arduino/tools/arm-none-eabi-gcc/7-2017q4/bin/../lib/gcc/arm-none-eabi/7.2.1/../../../../arm-none-eabi/lib/thumb/v7e-m/fpv4-sp/hard/crt0.o
callback_dmaDone()                                .\sloeber.ino.cpp.o
cancelReset                                       C:/sloeber-workspace/Samd51_DmaTest/Release/arduino.ar(Reset.cpp.o)
                                                  C:/sloeber-workspace/Samd51_DmaTest/Release/arduino.ar(CDC.cpp.o)
cleanup_glue                                      c:/sloeber/arduinoplugin/packages/arduino/tools/arm-none-eabi-gcc/7-2017q4/bin/../lib/gcc/arm-none-eabi/7.2.1/../../../../arm-none-eabi/lib/thumb/v7e-m/fpv4-sp/hard\libc_nano.a(lib_a-reent.o)
copysign                                          c:/sloeber/arduinoplugin/packages/arduino/tools/arm-none-eabi-gcc/7-2017q4/bin/../lib/gcc/arm-none-eabi/7.2.1/../../../../arm-none-eabi/lib/thumb/v7e-m/fpv4-sp/hard\libm.a(lib_a-s_copysign.o)
                                                  c:/sloeber/arduinoplugin/packages/arduino/tools/arm-none-eabi-gcc/7-2017q4/bin/../lib/gcc/arm-none-eabi/7.2.1/../../../../arm-none-eabi/lib/thumb/v7e-m/fpv4-sp/hard\libm.a(lib_a-s_scalbn.o)
delay                                             C:/sloeber-workspace/Samd51_DmaTest/Release/arduino.ar(delay.c.o)
                                                  C:/sloeber-workspace/Samd51_DmaTest/Release/arduino.ar(main.cpp.o)
                                                  C:/sloeber-workspace/Samd51_DmaTest/Release/arduino.ar(CDC.cpp.o)
                                                  .\sloeber.ino.cpp.o
delayMicroseconds                                 C:/sloeber-workspace/Samd51_DmaTest/Release/arduino.ar(delay.c.o)
                                                  C:/sloeber-workspace/Samd51_DmaTest/Release/arduino.ar(wiring_analog.c.o)
digitalRead                                       C:/sloeber-workspace/Samd51_DmaTest/Release/arduino.ar(wiring_digital.c.o)
digitalWrite                                      C:/sloeber-workspace/Samd51_DmaTest/Release/arduino.ar(wiring_digital.c.o)
                                                  C:/sloeber-workspace/Samd51_DmaTest/Release/arduino.ar(wiring_analog.c.o)
                                                  C:/sloeber-workspace/Samd51_DmaTest/Release/arduino.ar(USBCore.cpp.o)
                                                  .\sloeber.ino.cpp.o
dmaDone                                           .\sloeber.ino.cpp.o
dump(unsigned char*)                              .\sloeber.ino.cpp.o
end                                               c:/sloeber/arduinoplugin/packages/arduino/tools/arm-none-eabi-gcc/7-2017q4/bin/../lib/gcc/arm-none-eabi/7.2.1/../../../../arm-none-eabi/lib/thumb/v7e-m/fpv4-sp/hard\libnosys.a(sbrk.o)
errno                                             c:/sloeber/arduinoplugin/packages/arduino/tools/arm-none-eabi-gcc/7-2017q4/bin/../lib/gcc/arm-none-eabi/7.2.1/../../../../arm-none-eabi/lib/thumb/v7e-m/fpv4-sp/hard\libc_nano.a(lib_a-reent.o)
                                                  c:/sloeber/arduinoplugin/packages/arduino/tools/arm-none-eabi-gcc/7-2017q4/bin/../lib/gcc/arm-none-eabi/7.2.1/../../../../arm-none-eabi/lib/thumb/v7e-m/fpv4-sp/hard\libnosys.a(write.o)
                                                  c:/sloeber/arduinoplugin/packages/arduino/tools/arm-none-eabi-gcc/7-2017q4/bin/../lib/gcc/arm-none-eabi/7.2.1/../../../../arm-none-eabi/lib/thumb/v7e-m/fpv4-sp/hard\libnosys.a(read.o)
                                                  c:/sloeber/arduinoplugin/packages/arduino/tools/arm-none-eabi-gcc/7-2017q4/bin/../lib/gcc/arm-none-eabi/7.2.1/../../../../arm-none-eabi/lib/thumb/v7e-m/fpv4-sp/hard\libnosys.a(lseek.o)
                                                  c:/sloeber/arduinoplugin/packages/arduino/tools/arm-none-eabi-gcc/7-2017q4/bin/../lib/gcc/arm-none-eabi/7.2.1/../../../../arm-none-eabi/lib/thumb/v7e-m/fpv4-sp/hard\libnosys.a(kill.o)
                                                  c:/sloeber/arduinoplugin/packages/arduino/tools/arm-none-eabi-gcc/7-2017q4/bin/../lib/gcc/arm-none-eabi/7.2.1/../../../../arm-none-eabi/lib/thumb/v7e-m/fpv4-sp/hard\libnosys.a(isatty.o)
                                                  c:/sloeber/arduinoplugin/packages/arduino/tools/arm-none-eabi-gcc/7-2017q4/bin/../lib/gcc/arm-none-eabi/7.2.1/../../../../arm-none-eabi/lib/thumb/v7e-m/fpv4-sp/hard\libnosys.a(getpid.o)
                                                  c:/sloeber/arduinoplugin/packages/arduino/tools/arm-none-eabi-gcc/7-2017q4/bin/../lib/gcc/arm-none-eabi/7.2.1/../../../../arm-none-eabi/lib/thumb/v7e-m/fpv4-sp/hard\libnosys.a(fstat.o)
                                                  c:/sloeber/arduinoplugin/packages/arduino/tools/arm-none-eabi-gcc/7-2017q4/bin/../lib/gcc/arm-none-eabi/7.2.1/../../../../arm-none-eabi/lib/thumb/v7e-m/fpv4-sp/hard\libnosys.a(close.o)
                                                  c:/sloeber/arduinoplugin/packages/arduino/tools/arm-none-eabi-gcc/7-2017q4/bin/../lib/gcc/arm-none-eabi/7.2.1/../../../../arm-none-eabi/lib/thumb/v7e-m/fpv4-sp/hard\libc_nano.a(lib_a-readr.o)
                                                  c:/sloeber/arduinoplugin/packages/arduino/tools/arm-none-eabi-gcc/7-2017q4/bin/../lib/gcc/arm-none-eabi/7.2.1/../../../../arm-none-eabi/lib/thumb/v7e-m/fpv4-sp/hard\libc_nano.a(lib_a-lseekr.o)
                                                  c:/sloeber/arduinoplugin/packages/arduino/tools/arm-none-eabi-gcc/7-2017q4/bin/../lib/gcc/arm-none-eabi/7.2.1/../../../../arm-none-eabi/lib/thumb/v7e-m/fpv4-sp/hard\libc_nano.a(lib_a-isattyr.o)
                                                  c:/sloeber/arduinoplugin/packages/arduino/tools/arm-none-eabi-gcc/7-2017q4/bin/../lib/gcc/arm-none-eabi/7.2.1/../../../../arm-none-eabi/lib/thumb/v7e-m/fpv4-sp/hard\libc_nano.a(lib_a-fstatr.o)
                                                  c:/sloeber/arduinoplugin/packages/arduino/tools/arm-none-eabi-gcc/7-2017q4/bin/../lib/gcc/arm-none-eabi/7.2.1/../../../../arm-none-eabi/lib/thumb/v7e-m/fpv4-sp/hard\libc_nano.a(lib_a-closer.o)
                                                  c:/sloeber/arduinoplugin/packages/arduino/tools/arm-none-eabi-gcc/7-2017q4/bin/../lib/gcc/arm-none-eabi/7.2.1/../../../../arm-none-eabi/lib/thumb/v7e-m/fpv4-sp/hard\libc_nano.a(lib_a-writer.o)
                                                  c:/sloeber/arduinoplugin/packages/arduino/tools/arm-none-eabi-gcc/7-2017q4/bin/../lib/gcc/arm-none-eabi/7.2.1/../../../../arm-none-eabi/lib/thumb/v7e-m/fpv4-sp/hard\libc_nano.a(lib_a-signalr.o)
                                                  c:/sloeber/arduinoplugin/packages/arduino/tools/arm-none-eabi-gcc/7-2017q4/bin/../lib/gcc/arm-none-eabi/7.2.1/../../../../arm-none-eabi/lib/thumb/v7e-m/fpv4-sp/hard\libc_nano.a(lib_a-sbrkr.o)
exception_table                                   C:/sloeber-workspace/Samd51_DmaTest/Release/arduino.ar(cortex_handlers.c.o)
exit                                              c:/sloeber/arduinoplugin/packages/arduino/tools/arm-none-eabi-gcc/7-2017q4/bin/../lib/gcc/arm-none-eabi/7.2.1/../../../../arm-none-eabi/lib/thumb/v7e-m/fpv4-sp/hard\libc_nano.a(lib_a-exit.o)
                                                  c:/sloeber/arduinoplugin/packages/arduino/tools/arm-none-eabi-gcc/7-2017q4/bin/../lib/gcc/arm-none-eabi/7.2.1/../../../../arm-none-eabi/lib/thumb/v7e-m/fpv4-sp/hard/crt0.o
fabs                                              c:/sloeber/arduinoplugin/packages/arduino/tools/arm-none-eabi-gcc/7-2017q4/bin/../lib/gcc/arm-none-eabi/7.2.1/../../../../arm-none-eabi/lib/thumb/v7e-m/fpv4-sp/hard\libm.a(lib_a-s_fabs.o)
                                                  c:/sloeber/arduinoplugin/packages/arduino/tools/arm-none-eabi-gcc/7-2017q4/bin/../lib/gcc/arm-none-eabi/7.2.1/../../../../arm-none-eabi/lib/thumb/v7e-m/fpv4-sp/hard\libm.a(lib_a-e_pow.o)
fflush                                            c:/sloeber/arduinoplugin/packages/arduino/tools/arm-none-eabi-gcc/7-2017q4/bin/../lib/gcc/arm-none-eabi/7.2.1/../../../../arm-none-eabi/lib/thumb/v7e-m/fpv4-sp/hard\libc_nano.a(lib_a-fflush.o)
finite                                            c:/sloeber/arduinoplugin/packages/arduino/tools/arm-none-eabi-gcc/7-2017q4/bin/../lib/gcc/arm-none-eabi/7.2.1/../../../../arm-none-eabi/lib/thumb/v7e-m/fpv4-sp/hard\libm.a(lib_a-s_finite.o)
                                                  c:/sloeber/arduinoplugin/packages/arduino/tools/arm-none-eabi-gcc/7-2017q4/bin/../lib/gcc/arm-none-eabi/7.2.1/../../../../arm-none-eabi/lib/thumb/v7e-m/fpv4-sp/hard\libm.a(lib_a-w_pow.o)
fiprintf                                          c:/sloeber/arduinoplugin/packages/arduino/tools/arm-none-eabi-gcc/7-2017q4/bin/../lib/gcc/arm-none-eabi/7.2.1/../../../../arm-none-eabi/lib/thumb/v7e-m/fpv4-sp/hard\libc_nano.a(lib_a-fprintf.o)
                                                  c:/sloeber/arduinoplugin/packages/arduino/tools/arm-none-eabi-gcc/7-2017q4/bin/../lib/gcc/arm-none-eabi/7.2.1/../../../../arm-none-eabi/lib/thumb/v7e-m/fpv4-sp/hard\libc_nano.a(lib_a-assert.o)
fprintf                                           c:/sloeber/arduinoplugin/packages/arduino/tools/arm-none-eabi-gcc/7-2017q4/bin/../lib/gcc/arm-none-eabi/7.2.1/../../../../arm-none-eabi/lib/thumb/v7e-m/fpv4-sp/hard\libc_nano.a(lib_a-fprintf.o)
free                                              c:/sloeber/arduinoplugin/packages/arduino/tools/arm-none-eabi-gcc/7-2017q4/bin/../lib/gcc/arm-none-eabi/7.2.1/../../../../arm-none-eabi/lib/thumb/v7e-m/fpv4-sp/hard\libc_nano.a(lib_a-malloc.o)
                                                  C:/sloeber-workspace/Samd51_DmaTest/Release/arduino.ar(new.cpp.o)
                                                  C:/sloeber-workspace/Samd51_DmaTest/Release/arduino.ar(USBCore.cpp.o)
g_APinDescription                                 .\core\variant\variant.cpp.o
                                                  C:/sloeber-workspace/Samd51_DmaTest/Release/arduino.ar(wiring_private.c.o)
                                                  C:/sloeber-workspace/Samd51_DmaTest/Release/arduino.ar(wiring_digital.c.o)
                                                  C:/sloeber-workspace/Samd51_DmaTest/Release/arduino.ar(wiring_analog.c.o)
                                                  C:/sloeber-workspace/Samd51_DmaTest/Release/arduino.ar(Uart.cpp.o)
                                                  .\libraries\SPI\SPI.cpp.o
g_apTCInstances                                   .\core\variant\variant.cpp.o
                                                  C:/sloeber-workspace/Samd51_DmaTest/Release/arduino.ar(wiring_analog.c.o)
hardware_init_hook                                c:/sloeber/arduinoplugin/packages/arduino/tools/arm-none-eabi-gcc/7-2017q4/bin/../lib/gcc/arm-none-eabi/7.2.1/../../../../arm-none-eabi/lib/thumb/v7e-m/fpv4-sp/hard/crt0.o
init                                              C:/sloeber-workspace/Samd51_DmaTest/Release/arduino.ar(wiring.c.o)
                                                  C:/sloeber-workspace/Samd51_DmaTest/Release/arduino.ar(main.cpp.o)
initVariant()                                     C:/sloeber-workspace/Samd51_DmaTest/Release/arduino.ar(main.cpp.o)
initiateReset                                     C:/sloeber-workspace/Samd51_DmaTest/Release/arduino.ar(Reset.cpp.o)
                                                  C:/sloeber-workspace/Samd51_DmaTest/Release/arduino.ar(CDC.cpp.o)
loop                                              .\sloeber.ino.cpp.o
                                                  C:/sloeber-workspace/Samd51_DmaTest/Release/arduino.ar(main.cpp.o)
main                                              C:/sloeber-workspace/Samd51_DmaTest/Release/arduino.ar(main.cpp.o)
                                                  C:/sloeber-workspace/Samd51_DmaTest/Release/arduino.ar(cortex_handlers.c.o)
                                                  c:/sloeber/arduinoplugin/packages/arduino/tools/arm-none-eabi-gcc/7-2017q4/bin/../lib/gcc/arm-none-eabi/7.2.1/../../../../arm-none-eabi/lib/thumb/v7e-m/fpv4-sp/hard/crt0.o
malloc                                            c:/sloeber/arduinoplugin/packages/arduino/tools/arm-none-eabi-gcc/7-2017q4/bin/../lib/gcc/arm-none-eabi/7.2.1/../../../../arm-none-eabi/lib/thumb/v7e-m/fpv4-sp/hard\libc_nano.a(lib_a-malloc.o)
                                                  C:/sloeber-workspace/Samd51_DmaTest/Release/arduino.ar(new.cpp.o)
                                                  C:/sloeber-workspace/Samd51_DmaTest/Release/arduino.ar(USBCore.cpp.o)
matherr                                           c:/sloeber/arduinoplugin/packages/arduino/tools/arm-none-eabi-gcc/7-2017q4/bin/../lib/gcc/arm-none-eabi/7.2.1/../../../../arm-none-eabi/lib/thumb/v7e-m/fpv4-sp/hard\libm.a(lib_a-s_matherr.o)
                                                  c:/sloeber/arduinoplugin/packages/arduino/tools/arm-none-eabi-gcc/7-2017q4/bin/../lib/gcc/arm-none-eabi/7.2.1/../../../../arm-none-eabi/lib/thumb/v7e-m/fpv4-sp/hard\libm.a(lib_a-w_pow.o)
memalign                                          c:/sloeber/arduinoplugin/packages/arduino/tools/arm-none-eabi-gcc/7-2017q4/bin/../lib/gcc/arm-none-eabi/7.2.1/../../../../arm-none-eabi/lib/thumb/v7e-m/fpv4-sp/hard\libc_nano.a(lib_a-malign.o)
                                                  .\libraries\Adafruit_ZeroDMA\Adafruit_ZeroDMA.cpp.o
memchr                                            c:/sloeber/arduinoplugin/packages/arduino/tools/arm-none-eabi-gcc/7-2017q4/bin/../lib/gcc/arm-none-eabi/7.2.1/../../../../arm-none-eabi/lib/thumb/v7e-m/fpv4-sp/hard\libc_nano.a(lib_a-memchr.o)
                                                  c:/sloeber/arduinoplugin/packages/arduino/tools/arm-none-eabi-gcc/7-2017q4/bin/../lib/gcc/arm-none-eabi/7.2.1/../../../../arm-none-eabi/lib/thumb/v7e-m/fpv4-sp/hard\libc_nano.a(lib_a-nano-svfprintf.o)
                                                  c:/sloeber/arduinoplugin/packages/arduino/tools/arm-none-eabi-gcc/7-2017q4/bin/../lib/gcc/arm-none-eabi/7.2.1/../../../../arm-none-eabi/lib/thumb/v7e-m/fpv4-sp/hard\libc_nano.a(lib_a-fvwrite.o)
                                                  c:/sloeber/arduinoplugin/packages/arduino/tools/arm-none-eabi-gcc/7-2017q4/bin/../lib/gcc/arm-none-eabi/7.2.1/../../../../arm-none-eabi/lib/thumb/v7e-m/fpv4-sp/hard\libc_nano.a(lib_a-nano-vfprintf_i.o)
                                                  c:/sloeber/arduinoplugin/packages/arduino/tools/arm-none-eabi-gcc/7-2017q4/bin/../lib/gcc/arm-none-eabi/7.2.1/../../../../arm-none-eabi/lib/thumb/v7e-m/fpv4-sp/hard\libc_nano.a(lib_a-nano-vfprintf.o)
memcpy                                            c:/sloeber/arduinoplugin/packages/arduino/tools/arm-none-eabi-gcc/7-2017q4/bin/../lib/gcc/arm-none-eabi/7.2.1/../../../../arm-none-eabi/lib/thumb/v7e-m/fpv4-sp/hard\libc_nano.a(lib_a-memcpy-stub.o)
                                                  c:/sloeber/arduinoplugin/packages/arduino/tools/arm-none-eabi-gcc/7-2017q4/bin/../lib/gcc/arm-none-eabi/7.2.1/../../../../arm-none-eabi/lib/thumb/v7e-m/fpv4-sp/hard\libc_nano.a(lib_a-nano-svfprintf.o)
                                                  c:/sloeber/arduinoplugin/packages/arduino/tools/arm-none-eabi-gcc/7-2017q4/bin/../lib/gcc/arm-none-eabi/7.2.1/../../../../arm-none-eabi/lib/thumb/v7e-m/fpv4-sp/hard\libc_nano.a(lib_a-nano-reallocr.o)
                                                  c:/sloeber/arduinoplugin/packages/arduino/tools/arm-none-eabi-gcc/7-2017q4/bin/../lib/gcc/arm-none-eabi/7.2.1/../../../../arm-none-eabi/lib/thumb/v7e-m/fpv4-sp/hard\libc_nano.a(lib_a-fvwrite.o)
                                                  C:/sloeber-workspace/Samd51_DmaTest/Release/arduino.ar(USBCore.cpp.o)
memmove                                           c:/sloeber/arduinoplugin/packages/arduino/tools/arm-none-eabi-gcc/7-2017q4/bin/../lib/gcc/arm-none-eabi/7.2.1/../../../../arm-none-eabi/lib/thumb/v7e-m/fpv4-sp/hard\libc_nano.a(lib_a-memmove.o)
                                                  c:/sloeber/arduinoplugin/packages/arduino/tools/arm-none-eabi-gcc/7-2017q4/bin/../lib/gcc/arm-none-eabi/7.2.1/../../../../arm-none-eabi/lib/thumb/v7e-m/fpv4-sp/hard\libc_nano.a(lib_a-nano-svfprintf.o)
                                                  c:/sloeber/arduinoplugin/packages/arduino/tools/arm-none-eabi-gcc/7-2017q4/bin/../lib/gcc/arm-none-eabi/7.2.1/../../../../arm-none-eabi/lib/thumb/v7e-m/fpv4-sp/hard\libc_nano.a(lib_a-fvwrite.o)
memset                                            c:/sloeber/arduinoplugin/packages/arduino/tools/arm-none-eabi-gcc/7-2017q4/bin/../lib/gcc/arm-none-eabi/7.2.1/../../../../arm-none-eabi/lib/thumb/v7e-m/fpv4-sp/hard\libc_nano.a(lib_a-memset.o)
                                                  c:/sloeber/arduinoplugin/packages/arduino/tools/arm-none-eabi-gcc/7-2017q4/bin/../lib/gcc/arm-none-eabi/7.2.1/../../../../arm-none-eabi/lib/thumb/v7e-m/fpv4-sp/hard\libc_nano.a(lib_a-findfp.o)
                                                  C:/sloeber-workspace/Samd51_DmaTest/Release/arduino.ar(SAMD21_USBDevice.cpp.o)
                                                  C:/sloeber-workspace/Samd51_DmaTest/Release/arduino.ar(Uart.cpp.o)
                                                  .\libraries\Adafruit_ZeroDMA\Adafruit_ZeroDMA.cpp.o
                                                  c:/sloeber/arduinoplugin/packages/arduino/tools/arm-none-eabi-gcc/7-2017q4/bin/../lib/gcc/arm-none-eabi/7.2.1/../../../../arm-none-eabi/lib/thumb/v7e-m/fpv4-sp/hard/crt0.o
micros                                            C:/sloeber-workspace/Samd51_DmaTest/Release/arduino.ar(delay.c.o)
millis                                            C:/sloeber-workspace/Samd51_DmaTest/Release/arduino.ar(delay.c.o)
                                                  C:/sloeber-workspace/Samd51_DmaTest/Release/arduino.ar(CDC.cpp.o)
nan                                               c:/sloeber/arduinoplugin/packages/arduino/tools/arm-none-eabi-gcc/7-2017q4/bin/../lib/gcc/arm-none-eabi/7.2.1/../../../../arm-none-eabi/lib/thumb/v7e-m/fpv4-sp/hard\libm.a(lib_a-s_nan.o)
                                                  c:/sloeber/arduinoplugin/packages/arduino/tools/arm-none-eabi-gcc/7-2017q4/bin/../lib/gcc/arm-none-eabi/7.2.1/../../../../arm-none-eabi/lib/thumb/v7e-m/fpv4-sp/hard\libm.a(lib_a-e_pow.o)
operator delete(void*)                            C:/sloeber-workspace/Samd51_DmaTest/Release/arduino.ar(new.cpp.o)
                                                  C:/sloeber-workspace/Samd51_DmaTest/Release/arduino.ar(USBCore.cpp.o)
operator delete[](void*)                          C:/sloeber-workspace/Samd51_DmaTest/Release/arduino.ar(new.cpp.o)
operator new(unsigned int)                        C:/sloeber-workspace/Samd51_DmaTest/Release/arduino.ar(new.cpp.o)
                                                  C:/sloeber-workspace/Samd51_DmaTest/Release/arduino.ar(USBCore.cpp.o)
operator new[](unsigned int)                      C:/sloeber-workspace/Samd51_DmaTest/Release/arduino.ar(new.cpp.o)
pendSVHook                                        C:/sloeber-workspace/Samd51_DmaTest/Release/arduino.ar(hooks.c.o)
pinMode                                           C:/sloeber-workspace/Samd51_DmaTest/Release/arduino.ar(wiring_digital.c.o)
                                                  C:/sloeber-workspace/Samd51_DmaTest/Release/arduino.ar(wiring_private.c.o)
                                                  C:/sloeber-workspace/Samd51_DmaTest/Release/arduino.ar(wiring_analog.c.o)
                                                  C:/sloeber-workspace/Samd51_DmaTest/Release/arduino.ar(Uart.cpp.o)
                                                  C:/sloeber-workspace/Samd51_DmaTest/Release/arduino.ar(USBCore.cpp.o)
                                                  .\sloeber.ino.cpp.o
pinPeripheral                                     C:/sloeber-workspace/Samd51_DmaTest/Release/arduino.ar(wiring_private.c.o)
                                                  C:/sloeber-workspace/Samd51_DmaTest/Release/arduino.ar(wiring_analog.c.o)
                                                  C:/sloeber-workspace/Samd51_DmaTest/Release/arduino.ar(Uart.cpp.o)
                                                  .\libraries\SPI\SPI.cpp.o
pow                                               c:/sloeber/arduinoplugin/packages/arduino/tools/arm-none-eabi-gcc/7-2017q4/bin/../lib/gcc/arm-none-eabi/7.2.1/../../../../arm-none-eabi/lib/thumb/v7e-m/fpv4-sp/hard\libm.a(lib_a-w_pow.o)
                                                  .\sloeber.ino.cpp.o
raise                                             c:/sloeber/arduinoplugin/packages/arduino/tools/arm-none-eabi-gcc/7-2017q4/bin/../lib/gcc/arm-none-eabi/7.2.1/../../../../arm-none-eabi/lib/thumb/v7e-m/fpv4-sp/hard\libc_nano.a(lib_a-signal.o)
                                                  c:/sloeber/arduinoplugin/packages/arduino/tools/arm-none-eabi-gcc/7-2017q4/bin/../lib/gcc/arm-none-eabi/7.2.1/../../../../arm-none-eabi/lib/thumb/v7e-m/fpv4-sp/hard\libc_nano.a(lib_a-abort.o)
receive_memory                                    .\sloeber.ino.cpp.o
rint                                              c:/sloeber/arduinoplugin/packages/arduino/tools/arm-none-eabi-gcc/7-2017q4/bin/../lib/gcc/arm-none-eabi/7.2.1/../../../../arm-none-eabi/lib/thumb/v7e-m/fpv4-sp/hard\libm.a(lib_a-s_rint.o)
                                                  c:/sloeber/arduinoplugin/packages/arduino/tools/arm-none-eabi-gcc/7-2017q4/bin/../lib/gcc/arm-none-eabi/7.2.1/../../../../arm-none-eabi/lib/thumb/v7e-m/fpv4-sp/hard\libm.a(lib_a-w_pow.o)
scalbn                                            c:/sloeber/arduinoplugin/packages/arduino/tools/arm-none-eabi-gcc/7-2017q4/bin/../lib/gcc/arm-none-eabi/7.2.1/../../../../arm-none-eabi/lib/thumb/v7e-m/fpv4-sp/hard\libm.a(lib_a-s_scalbn.o)
                                                  c:/sloeber/arduinoplugin/packages/arduino/tools/arm-none-eabi-gcc/7-2017q4/bin/../lib/gcc/arm-none-eabi/7.2.1/../../../../arm-none-eabi/lib/thumb/v7e-m/fpv4-sp/hard\libm.a(lib_a-e_pow.o)
send_memory                                       .\sloeber.ino.cpp.o
sercom0                                           .\core\variant\variant.cpp.o
sercom1                                           .\core\variant\variant.cpp.o
sercom2                                           .\core\variant\variant.cpp.o
                                                  .\libraries\SPI\SPI.cpp.o
sercom3                                           .\core\variant\variant.cpp.o
sercom4                                           .\core\variant\variant.cpp.o
sercom5                                           .\core\variant\variant.cpp.o
serialEventRun()                                  C:/sloeber-workspace/Samd51_DmaTest/Release/arduino.ar(main.cpp.o)
setup                                             .\sloeber.ino.cpp.o
                                                  C:/sloeber-workspace/Samd51_DmaTest/Release/arduino.ar(main.cpp.o)
signal                                            c:/sloeber/arduinoplugin/packages/arduino/tools/arm-none-eabi-gcc/7-2017q4/bin/../lib/gcc/arm-none-eabi/7.2.1/../../../../arm-none-eabi/lib/thumb/v7e-m/fpv4-sp/hard\libc_nano.a(lib_a-signal.o)
software_init_hook                                c:/sloeber/arduinoplugin/packages/arduino/tools/arm-none-eabi-gcc/7-2017q4/bin/../lib/gcc/arm-none-eabi/7.2.1/../../../../arm-none-eabi/lib/thumb/v7e-m/fpv4-sp/hard/crt0.o
strlen                                            c:/sloeber/arduinoplugin/packages/arduino/tools/arm-none-eabi-gcc/7-2017q4/bin/../lib/gcc/arm-none-eabi/7.2.1/../../../../arm-none-eabi/lib/thumb/v7e-m/fpv4-sp/hard\libc_nano.a(lib_a-strlen.o)
                                                  C:/sloeber-workspace/Samd51_DmaTest/Release/arduino.ar(Print.cpp.o)
                                                  C:/sloeber-workspace/Samd51_DmaTest/Release/arduino.ar(USBCore.cpp.o)
svcHook                                           C:/sloeber-workspace/Samd51_DmaTest/Release/arduino.ar(hooks.c.o)
sysTickHook                                       C:/sloeber-workspace/Samd51_DmaTest/Release/arduino.ar(hooks.c.o)
                                                  C:/sloeber-workspace/Samd51_DmaTest/Release/arduino.ar(cortex_handlers.c.o)
tickReset                                         C:/sloeber-workspace/Samd51_DmaTest/Release/arduino.ar(Reset.cpp.o)
                                                  C:/sloeber-workspace/Samd51_DmaTest/Release/arduino.ar(delay.c.o)
usbd                                              C:/sloeber-workspace/Samd51_DmaTest/Release/arduino.ar(USBCore.cpp.o)
vfiprintf                                         c:/sloeber/arduinoplugin/packages/arduino/tools/arm-none-eabi-gcc/7-2017q4/bin/../lib/gcc/arm-none-eabi/7.2.1/../../../../arm-none-eabi/lib/thumb/v7e-m/fpv4-sp/hard\libc_nano.a(lib_a-nano-vfprintf.o)
vfprintf                                          c:/sloeber/arduinoplugin/packages/arduino/tools/arm-none-eabi-gcc/7-2017q4/bin/../lib/gcc/arm-none-eabi/7.2.1/../../../../arm-none-eabi/lib/thumb/v7e-m/fpv4-sp/hard\libc_nano.a(lib_a-nano-vfprintf.o)
vsniprintf                                        c:/sloeber/arduinoplugin/packages/arduino/tools/arm-none-eabi-gcc/7-2017q4/bin/../lib/gcc/arm-none-eabi/7.2.1/../../../../arm-none-eabi/lib/thumb/v7e-m/fpv4-sp/hard\libc_nano.a(lib_a-vsnprintf.o)
vsnprintf                                         c:/sloeber/arduinoplugin/packages/arduino/tools/arm-none-eabi-gcc/7-2017q4/bin/../lib/gcc/arm-none-eabi/7.2.1/../../../../arm-none-eabi/lib/thumb/v7e-m/fpv4-sp/hard\libc_nano.a(lib_a-vsnprintf.o)
                                                  C:/sloeber-workspace/Samd51_DmaTest/Release/arduino.ar(Print.cpp.o)
vtable for DoubleBufferedEPOutHandler             C:/sloeber-workspace/Samd51_DmaTest/Release/arduino.ar(USBCore.cpp.o)
vtable for Print                                  C:/sloeber-workspace/Samd51_DmaTest/Release/arduino.ar(Print.cpp.o)
vtable for Serial_                                C:/sloeber-workspace/Samd51_DmaTest/Release/arduino.ar(CDC.cpp.o)
vtable for Uart                                   C:/sloeber-workspace/Samd51_DmaTest/Release/arduino.ar(Uart.cpp.o)
yield                                             C:/sloeber-workspace/Samd51_DmaTest/Release/arduino.ar(hooks.c.o)
                                                  C:/sloeber-workspace/Samd51_DmaTest/Release/arduino.ar(main.cpp.o)
                                                  C:/sloeber-workspace/Samd51_DmaTest/Release/arduino.ar(delay.c.o)
